Archive member included because of file (symbol)

c:/program files/microchip/xc32/v2.50/bin/bin/../../lib/gcc/pic32mx/4.8.3/fpu64\libgcc.a(_udivdi3.o)
                              build/default/debug/_ext/945675698/sys_tmr.o (__udivdi3)
c:/program files/microchip/xc32/v2.50/bin/bin/../../lib/gcc/pic32mx/4.8.3/../../../../pic32mx/lib/fpu64\libpic32.a(memcmp.o)
                              build/default/debug/_ext/746721678/sys_fs_media_manager.o (memcmp)
c:/program files/microchip/xc32/v2.50/bin/bin/../../lib/gcc/pic32mx/4.8.3/../../../../pic32mx/lib/fpu64\libpic32.a(memcpy.o)
                              build/default/debug/_ext/2062801281/CLASSB_RAMMarchCStackTest.o (memcpy)
c:/program files/microchip/xc32/v2.50/bin/bin/../../lib/gcc/pic32mx/4.8.3/../../../../pic32mx/lib/fpu64\libpic32.a(memset.o)
                              build/default/debug/_ext/1360937237/commands.o (memset)
c:/program files/microchip/xc32/v2.50/bin/bin/../../lib/gcc/pic32mx/4.8.3/../../../../pic32mx/lib/fpu64\libpic32.a(strcmp.o)
                              build/default/debug/_ext/1360937237/nvm_fs.o (strcmp)
c:/program files/microchip/xc32/v2.50/bin/bin/../../lib/gcc/pic32mx/4.8.3/../../../../pic32mx/lib/fpu64\libpic32.a(strcpy.o)
                              build/default/debug/_ext/746721678/sys_fs.o (strcpy)
c:/program files/microchip/xc32/v2.50/bin/bin/../../lib/gcc/pic32mx/4.8.3/../../../../pic32mx/lib/fpu64\libpic32.a(strlen.o)
                              build/default/debug/_ext/746721678/sys_fs.o (strlen)
c:/program files/microchip/xc32/v2.50/bin/bin/../../lib/gcc/pic32mx/4.8.3/../../../../pic32mx/lib/fpu64\libpic32.a(default-bootstrap-exception-handler.o)
                              C:\Users\DAVID~1.DOB\AppData\Local\Temp\cchLGtk6.o (_bootstrap_exception_handler)
c:/program files/microchip/xc32/v2.50/bin/bin/../../lib/gcc/pic32mx/4.8.3/../../../../pic32mx/lib/fpu64\libpic32.a(default-on-reset.o)
                              C:\Users\DAVID~1.DOB\AppData\Local\Temp\cchLGtk6.o (_on_reset)
c:/program files/microchip/xc32/v2.50/bin/bin/../../lib/gcc/pic32mx/4.8.3/../../../../pic32mx/lib/fpu64\libpic32.a(default-on-bootstrap.o)
                              C:\Users\DAVID~1.DOB\AppData\Local\Temp\cchLGtk6.o (_on_bootstrap)
c:/program files/microchip/xc32/v2.50/bin/bin/../../lib/gcc/pic32mx/4.8.3/../../../../pic32mx/lib/fpu64\libpic32.a(default-nmi-handler.o)
                              C:\Users\DAVID~1.DOB\AppData\Local\Temp\cchLGtk6.o (_nmi_handler)
c:/program files/microchip/xc32/v2.50/bin/bin/../../lib/gcc/pic32mx/4.8.3/../../../../pic32mx/lib/fpu64\libpic32.a(pic32_data_init.o)
                              C:\Users\DAVID~1.DOB\AppData\Local\Temp\cchLGtk6.o (__pic32_data_init)
c:/program files/microchip/xc32/v2.50/bin/bin/../../lib/gcc/pic32mx/4.8.3/../../../../pic32mx/lib/fpu64\libpic32.a(pic32_init_cache.o)
                              C:\Users\DAVID~1.DOB\AppData\Local\Temp\cchLGtk6.o (__pic32_init_cache)
c:/program files/microchip/xc32/v2.50/bin/bin/../../lib/gcc/pic32mx/4.8.3/../../../../pic32mx/lib/fpu64\libpic32.a(pic32_init_tlb_ebi_sqi.o)
                              C:\Users\DAVID~1.DOB\AppData\Local\Temp\cchLGtk6.o (__pic32_tlb_init_ebi_sqi)
c:/program files/microchip/xc32/v2.50/bin/bin/../../lib/gcc/pic32mx/4.8.3/../../../../pic32mx/lib/fpu64\libpic32.a(general-exception.o)
                              C:\Users\DAVID~1.DOB\AppData\Local\Temp\cchLGtk6.o (_general_exception_context)
c:/program files/microchip/xc32/v2.50/bin/bin/../../lib/gcc/pic32mx/4.8.3/../../../../pic32mx/lib/fpu64\libpic32.a(cache-err-exception.o)
                              C:\Users\DAVID~1.DOB\AppData\Local\Temp\cchLGtk6.o (_cache_err_exception_context)
c:/program files/microchip/xc32/v2.50/bin/bin/../../lib/gcc/pic32mx/4.8.3/../../../../pic32mx/lib/fpu64\libpic32.a(simple-tlb-refill-exception.o)
                              C:\Users\DAVID~1.DOB\AppData\Local\Temp\cchLGtk6.o (_simple_tlb_refill_exception_context)
c:/program files/microchip/xc32/v2.50/bin/bin/../../lib/gcc/pic32mx/4.8.3/../../../../pic32mx/lib/fpu64\libpic32.a(defaultinterrupt.o)
                              C:\Users\DAVID~1.DOB\AppData\Local\Temp\cc32eKz8.o (_DefaultInterrupt)
c:/program files/microchip/xc32/v2.50/bin/bin/../../lib/gcc/pic32mx/4.8.3/../../../../pic32mx/lib/fpu64\libpic32.a(default-cache-err-exception-handler.o)
                              c:/program files/microchip/xc32/v2.50/bin/bin/../../lib/gcc/pic32mx/4.8.3/../../../../pic32mx/lib/fpu64\libpic32.a(cache-err-exception.o) (_cache_err_exception_handler)
c:/program files/microchip/xc32/v2.50/bin/bin/../../lib/gcc/pic32mx/4.8.3/../../../../pic32mx/lib/fpu64\libpic32.a(default-simple-tlb-refill-exception-handler.o)
                              c:/program files/microchip/xc32/v2.50/bin/bin/../../lib/gcc/pic32mx/4.8.3/../../../../pic32mx/lib/fpu64\libpic32.a(simple-tlb-refill-exception.o) (_simple_tlb_refill_exception_handler)
c:/program files/microchip/xc32/v2.50/bin/bin/../../lib/gcc/pic32mx/4.8.3/../../../../pic32mx/lib/fpu64\liblega-c.a(strncmp.o)
                              build/default/debug/_ext/746721678/sys_fs.o (strncmp)
c:/program files/microchip/xc32/v2.50/bin/bin/../../lib/gcc/pic32mx/4.8.3/../../../../pic32mx/lib/fpu64\liblega-c.a(strncpy.o)
                              build/default/debug/_ext/746721678/sys_fs.o (strncpy)
c:/program files/microchip/xc32/v2.50/bin/bin/../../lib/gcc/pic32mx/4.8.3/../../../../pic32mx/lib/fpu64\liblega-c.a(strchr.o)
                              build/default/debug/_ext/1360937237/commands.o (strchr)

Allocating common symbols
Common symbol       size              file

TX_FIFO             0x10              build/default/debug/_ext/1360937237/fifo.o
gSYSFSObj           0x8               build/default/debug/_ext/746721678/sys_fs.o
HIGH_SIDE           0x2c              build/default/debug/_ext/1360937237/high_side.o
gUSBDeviceHIDIRP    0x48              build/default/debug/_ext/419360567/usb_device_hid.o
gNVMGeometryTable   0x4               build/default/debug/_ext/274850301/drv_nvm.o
gUSBDeviceHidCommonDataObj
                    0x2               build/default/debug/_ext/419360567/usb_device_hid.o
RX_FIFO             0x10              build/default/debug/_ext/1360937237/fifo.o
appData             0x24              build/default/debug/_ext/1360937237/timers.o
gDrvUSBEndpoints    0x50              build/default/debug/_ext/1329795486/drv_usbhs.o
gSysFsMutex         0x1               build/default/debug/_ext/746721678/sys_fs.o
gDrvUSART0Obj       0x4               build/default/debug/_ext/327000265/drv_usart_static.o
sysObj              0x30              build/default/debug/_ext/1688732426/system_init.o
gDrvUSBObj          0x138             build/default/debug/_ext/1329795486/drv_usbhs.o
REPORT              0x40              build/default/debug/_ext/1360937237/report.o
count               0x1               build/default/debug/_ext/1360937237/gpt.o
writeData           0x1               build/default/debug/_ext/1360937237/app.o
gSYSFSFileObj       0x110             build/default/debug/_ext/746721678/sys_fs.o
gSYSFSDirObj        0x10              build/default/debug/_ext/746721678/sys_fs.o
gDrvNVMObj          0x34              build/default/debug/_ext/274850301/drv_nvm.o
gSYSFSMountPoint    0x14              build/default/debug/_ext/746721678/sys_fs.o
TEST_FLAG           0x2c              build/default/debug/_ext/1360937237/test.o
gDrvNVMBufferObject
                    0xf0              build/default/debug/_ext/274850301/drv_nvm.o
gDrvNVMClientObj    0x18              build/default/debug/_ext/274850301/drv_nvm.o
nvmClientObjMutex   0x1               build/default/debug/_ext/274850301/drv_nvm.o
gDrvUSART1Obj       0x4               build/default/debug/_ext/327000265/drv_usart_static.o
CMD                 0x10              build/default/debug/_ext/1360937237/commands.o
delay_count         0x4               build/default/debug/_ext/1360937237/switches.o
GAM                 0x28              build/default/debug/_ext/1360937237/gamma.o
gUsbDeviceHidInstance
                    0x28              build/default/debug/_ext/419360567/usb_device_hid.o
SW_COM              0x4               build/default/debug/_ext/1360937237/switches.o
sysDevconObj        0x8               build/default/debug/_ext/340578644/sys_devcon.o
gSYSFSMediaObject   0x2c              build/default/debug/_ext/746721678/sys_fs_media_manager.o
nvmBufObjMutex      0x1               build/default/debug/_ext/274850301/drv_nvm.o
gSYSFSCurrentMountPoint
                    0x8               build/default/debug/_ext/746721678/sys_fs.o
SWITCH              0x18              build/default/debug/_ext/1360937237/switches.o
nvmfsData           0x78              build/default/debug/_ext/1360937237/app.o
errorValue          0x4               build/default/debug/_ext/746721678/sys_fs.o
SYSTEM_OKAY         0x8               build/default/debug/_ext/1360937237/system_okay.o
gDrvNVMMediaGeometry
                    0x4               build/default/debug/_ext/274850301/drv_nvm.o
gSYSFSVolumeObject  0x1c              build/default/debug/_ext/746721678/sys_fs_media_manager.o
GPT                 0x74c             build/default/debug/_ext/1688732426/system_interrupt.o
VolToPart           0x2               build/default/debug/_ext/746721678/sys_fs_media_manager.o
TIMER               0x18              build/default/debug/_ext/1360937237/timers.o
COMM                0xc               build/default/debug/_ext/1360937237/commmodule.o

Microchip PIC32 Memory-Usage Report

kseg0 Program-Memory Usage
section                    address  length [bytes]      (dec)  Description
-------                 ----------  -------------------------  -----------
.simple_tlb_refill_excp 0x9d000000           0x10          16   
.text.DRV_SPI_PolledErr 0x9d000010           0xe8         232   
.text.DRV_USART_TasksTr 0x9d0000f8            0x8           8   
.cache_err_excpt        0x9d000100           0x10          16   
.text.Init_Fifo         0x9d000110           0x70         112   
.app_excpt              0x9d000180           0x10          16  General-Exception 
.text.SYS_FS_MEDIA_MANA 0x9d000190           0x70         112   
.vectors                0x9d000200           0xa0         160   
.text                   0x9d0002a0         0x511c       20764  App's exec code 
.text.f_mkfs            0x9d0053bc          0x9ac        2476   
.text._DRV_USBHS_DEVICE 0x9d005d68          0x92c        2348   
.text.GPT_RX_Tasks      0x9d006694          0x868        2152   
.dinit                  0x9d006efc          0x750        1872   
.text.follow_path       0x9d00764c          0x700        1792   
.text.SYS_FS_MEDIA_MANA 0x9d007d4c          0x6e0        1760   
.text.find_volume       0x9d00842c          0x5ac        1452   
.text.DRV_USBHS_DEVICE_ 0x9d0089d8          0x560        1376   
.text.NVM_FS_Tasks      0x9d008f38          0x530        1328   
.text.f_printf          0x9d009468          0x510        1296   
.text.SWITCH_Tasks      0x9d009978          0x4e8        1256   
.text.dir_register      0x9d009e60          0x47c        1148   
.text.HIGH_SIDE_Tasks   0x9d00a2dc          0x458        1112   
.text.COMMAND_Tasks     0x9d00a734          0x44c        1100   
.text._DRV_USBHS_Proces 0x9d00ab80          0x424        1060   
.text.DRV_USBHS_DEVICE_ 0x9d00afa4          0x400        1024   
.text._IntHandlerChange 0x9d00b3a4          0x3cc         972   
.text.DRV_NVM_Tasks     0x9d00b770          0x3bc         956   
.text.DRV_SPI_SetupHard 0x9d00bb2c          0x394         916   
.text.f_setlabel        0x9d00bec0          0x394         916   
.text.SYS_PORTS_Initial 0x9d00c254          0x340         832   
.text.f_open            0x9d00c594          0x340         832   
.text.f_write           0x9d00c8d4          0x334         820   
.text.SYS_TMR_Tasks     0x9d00cc08          0x308         776   
.text.dir_find          0x9d00cf10          0x2f8         760   
.text._USB_DEVICE_HID_C 0x9d00d208          0x2f8         760   
.text.f_mkdir           0x9d00d500          0x2f4         756   
.text._IntHandlerChange 0x9d00d7f4          0x2e4         740   
.text.f_read            0x9d00dad8          0x2d8         728   
.text.f_lseek           0x9d00ddb0          0x2d4         724   
.text.RAMMarchBTestCycl 0x9d00e084          0x2d0         720   
.text.SYS_FS_MEDIA_MANA 0x9d00e354          0x2b8         696   
.text.TIMER_Tasks       0x9d00e60c          0x2b4         692   
.text.SYS_FS_FileOpen   0x9d00e8c0          0x2b4         692   
.text.DRV_USBHS_DEVICE_ 0x9d00eb74          0x2a8         680   
.text._DRV_USBHS_DEVICE 0x9d00ee1c          0x2a4         676   
.text.DRV_SPI_PolledMas 0x9d00f0c0          0x29c         668   
.text.DRV_SPI_PolledMas 0x9d00f35c          0x29c         668   
.text.DRV_USBHS_Tasks   0x9d00f5f8          0x298         664   
.text.DRV_USBHS_DEVICE_ 0x9d00f890          0x298         664   
.text.DRV_SPI_Initializ 0x9d00fb28          0x278         632   
.text._IntHandlerDrvNvm 0x9d00fda0          0x254         596   
.text.__exception_handl 0x9d00fff4            0xc          12   
.FAT_IMAGE.FAT_IMAGE    0x9d010000         0x8000       32768   
.text.CLASSB_CPUPCTestF 0x9d155550           0x10          16   
.text.CLASSB_CPUPCTestF 0x9d1aaaa0           0x10          16   
.text.f_getcwd          0x9d1aaab0          0x278         632   
.text.DRV_SPI_Open      0x9d1aad28          0x26c         620   
.text.IntHandlerDrvTmrI 0x9d1aaf94          0x264         612   
.text._IntHandlerUSBIns 0x9d1ab1f8          0x254         596   
.text._IntHandlerUSBIns 0x9d1ab44c          0x254         596   
.text.DRV_NVM_EraseWrit 0x9d1ab6a0          0x250         592   
.text.f_fdisk           0x9d1ab8f0          0x250         592   
.text.HID_Tasks         0x9d1abb40          0x244         580   
.text.DRV_USBHS_DEVICE_ 0x9d1abd84          0x240         576   
.text.dir_read          0x9d1abfc4          0x238         568   
.text.SYS_FS_Mount      0x9d1ac1fc          0x234         564   
.text._USB_DEVICE_Other 0x9d1ac430          0x224         548   
.text.RAMMarchCTestCycl 0x9d1ac654          0x220         544   
.text._DRV_NVM_BlockOpe 0x9d1ac874          0x21c         540   
.text.COMM_Tasks        0x9d1aca90          0x218         536   
.text.DACQ_ReportCreate 0x9d1acca8          0x214         532   
.text._USB_DEVICE_Proce 0x9d1acebc          0x214         532   
.text.DRV_USBHS_DEVICE_ 0x9d1ad0d0          0x210         528   
.rodata                 0x9d1ad2e0          0x20c         524  Read-only const 
.text._USB_DEVICE_Proce 0x9d1ad4ec          0x204         516   
.text._USB_DEVICE_Contr 0x9d1ad6f0          0x204         516   
.text.f_rename          0x9d1ad8f4          0x200         512   
.text.get_fileinfo      0x9d1adaf4          0x1fc         508   
.text._USB_DEVICE_Event 0x9d1adcf0          0x1f8         504   
.text.dir_next          0x9d1adee8          0x1ec         492   
.text.DRV_SPI_SYS_QUEUE 0x9d1ae0d4          0x1e0         480   
.text.DRV_USBHS_DEVICE_ 0x9d1ae2b4          0x1e0         480   
.text.put_fat           0x9d1ae494          0x1c8         456   
.text.f_getfree         0x9d1ae65c          0x1c4         452   
.text.SYS_Initialize    0x9d1ae820          0x1c0         448   
.text.DRV_NVM_Read      0x9d1ae9e0          0x1b8         440   
.text.create_chain      0x9d1aeb98          0x1a4         420   
.text.ClassB_Test       0x9d1aed3c          0x1a0         416   
.text.DRV_SPI_BufferAdd 0x9d1aeedc          0x198         408   
.text.get_fat           0x9d1af074          0x18c         396   
.text.f_unlink          0x9d1af200          0x184         388   
.text._USB_DEVICE_Ep0Re 0x9d1af384          0x184         388   
.text.f_opendir         0x9d1af508          0x17c         380   
.text.CLASSB_RAMMarchCT 0x9d1af684          0x178         376   
.text.USB_DEVICE_Tasks  0x9d1af7fc          0x178         376   
.text.CLASSB_RAMChecker 0x9d1af974          0x170         368   
.text.CLASSB_RAMMarchBT 0x9d1afae4          0x170         368   
.text.USB_DEVICE_HID_Re 0x9d1afc54          0x170         368   
.text.USB_DEVICE_HID_Re 0x9d1afdc4          0x170         368   
.text.SYS_FS_GetDisk    0x9d1aff34          0x168         360   
.text                   0x9d1b009c          0x2d0         720  App's exec code 
.text.f_truncate        0x9d1b036c          0x160         352   
.text.USB_DEVICE_Initia 0x9d1b04cc          0x15c         348   
.text.dir_sdi           0x9d1b0628          0x150         336   
.text.f_sync            0x9d1b0778          0x140         320   
.text._USB_DEVICE_HID_I 0x9d1b08b8          0x140         320   
.text.DRV_USART0_Initia 0x9d1b09f8          0x13c         316   
.text._DRV_USBHS_DEVICE 0x9d1b0b34          0x13c         316   
.text.DRV_USBHS_DEVICE_ 0x9d1b0c70          0x138         312   
.text.SYS_FS_Unmount    0x9d1b0da8          0x138         312   
.text.f_getlabel        0x9d1b0ee0          0x138         312   
.text.DRV_USART1_Initia 0x9d1b1018          0x134         308   
.text.SYS_FS_FileSeek   0x9d1b114c          0x12c         300   
.rodata                 0x9d1b1278          0x128         296  Read-only const 
.text.RAMCheckerBoardTe 0x9d1b13a0          0x128         296   
.text.DRV_NVM_Initializ 0x9d1b14c8          0x128         296   
.rodata                 0x9d1b15f0          0x120         288  Read-only const 
.text                   0x9d1b1710          0x120         288  App's exec code 
.text.sync_fs           0x9d1b1830          0x11c         284   
.text.DRV_NVM_Close     0x9d1b194c          0x114         276   
.text.DRV_SPI_SYS_QUEUE 0x9d1b1a60          0x110         272   
.text.SYS_DEVCON_Perfor 0x9d1b1b70          0x104         260   
.text.GAMMA_Tasks       0x9d1b1c74          0x104         260   
.text.DRV_SPI_MasterEBM 0x9d1b1d78          0x100         256   
.text._IntHandlerChange 0x9d1b1e78          0x100         256   
.text._USB_DEVICE_Confi 0x9d1b1f78          0x100         256   
.text._USB_DEVICE_Proce 0x9d1b2078          0x100         256   
.text.strncpy           0x9d1b2178          0x100         256   
.text.SYS_CLK_Initializ 0x9d1b2278           0xfc         252   
.text.DRV_SPI_SYS_QUEUE 0x9d1b2374           0xfc         252   
.text.f_mount           0x9d1b2470           0xf4         244   
.text.strchr            0x9d1b2564           0xf4         244   
.text.DRV_SPI_MasterEBM 0x9d1b2658           0xe4         228   
.text.APP_USBDeviceHIDE 0x9d1b273c           0xe0         224   
.text.SYS_FS_FileStat   0x9d1b281c           0xe0         224   
.text.f_unmount         0x9d1b28fc           0xe0         224   
.text.strncmp           0x9d1b29dc           0xe0         224   
.text.GAMMA_Counts      0x9d1b2abc           0xdc         220   
.text.remove_chain      0x9d1b2b98           0xdc         220   
.text.general_exception 0x9d1b2c74           0xdc         220   
.text._cache_err_except 0x9d1b2d50           0xd8         216   
.text.simple_tlb_refill 0x9d1b2e28           0xd8         216   
.text.check_fs          0x9d1b2f00           0xd4         212   
.text.DRV_SPI_MasterEBM 0x9d1b2fd4           0xd0         208   
.text.DRV_NVM_Open      0x9d1b30a4           0xd0         208   
.text.SYS_FS_FileWrite  0x9d1b3174           0xd0         208   
.text.f_readdir         0x9d1b3244           0xd0         208   
.text._USB_DEVICE_GetSt 0x9d1b3314           0xd0         208   
.text.APP_USBDeviceEven 0x9d1b33e4           0xcc         204   
.text.SYS_FS_FileRead   0x9d1b34b0           0xcc         204   
.text.SYS_FS_FileTell   0x9d1b357c           0xcc         204   
.text.SYS_FS_FileSize   0x9d1b3648           0xcc         204   
.text.sync_window       0x9d1b3714           0xcc         204   
.text.f_chmod           0x9d1b37e0           0xcc         204   
.text.f_utime           0x9d1b38ac           0xcc         204   
.text.dir_remove        0x9d1b3978           0xcc         204   
.text._DRV_USBHS_DEVICE 0x9d1b3a44           0xc8         200   
.text.SYS_FS_FileClose  0x9d1b3b0c           0xc8         200   
.text.SYS_FS_FileSync   0x9d1b3bd4           0xc4         196   
.text.SYS_TMR_Initializ 0x9d1b3c98           0xc0         192   
.text._USB_DEVICE_Ep0Tr 0x9d1b3d58           0xc0         192   
.text.DRV_SPI_MasterEBM 0x9d1b3e18           0xbc         188   
.tlb.__pic32_tlb_init_e 0x9d1b3ed4           0xbc         188   
.text.DRV_SPI_SYS_QUEUE 0x9d1b3f90           0xb8         184   
.text.DRV_USBHS_Initial 0x9d1b4048           0xb8         184   
.text.DRV_USBHS_Open    0x9d1b4100           0xb8         184   
.text.f_chdir           0x9d1b41b8           0xb8         184   
.text.DRV_USBHS_Tasks_I 0x9d1b4270           0xb4         180   
.text.SYS_FS_MEDIA_MANA 0x9d1b4324           0xb4         180   
.text.dir_alloc         0x9d1b43d8           0xb4         180   
.text.SYS_FS_FileEOF    0x9d1b448c           0xb0         176   
.text._USB_DEVICE_HID_R 0x9d1b453c           0xb0         176   
.text._USB_DEVICE_HID_R 0x9d1b45ec           0xb0         176   
.text._DRV_NVM_UnlockSe 0x9d1b469c           0xac         172   
.text.inc_lock          0x9d1b4748           0xac         172   
.text.f_gets            0x9d1b47f4           0xac         172   
.text.CLASSB_RAMMarchCS 0x9d1b48a0           0xa8         168   
.text.DRV_USBHS_Tasks_I 0x9d1b4948           0xa8         168   
.text._USB_DEVICE_DeIni 0x9d1b49f0           0xa8         168   
.text                   0x9d1b4a98           0xa8         168  App's exec code 
.text.Valid_Command     0x9d1b4b40           0xa4         164   
.text._DRV_USBHS_DEVICE 0x9d1b4be4           0xa4         164   
.text.get_ldnumber      0x9d1b4c88           0xa4         164   
.text.DRV_TMR_Start     0x9d1b4d2c           0xa0         160   
.text.DRV_TMR_CounterFr 0x9d1b4dcc           0xa0         160   
.text.GAMMA_Gain        0x9d1b4e6c           0xa0         160   
.text._DRV_SPI_SYS_QUEU 0x9d1b4f0c           0x9c         156   
.text.SYS_FS_MEDIA_MANA 0x9d1b4fa8           0x9c         156   
.text._USB_DEVICE_Forwa 0x9d1b5044           0x9c         156   
.text.IntHandlerDrvTmrI 0x9d1b50e0           0x98         152   
.text.f_puts            0x9d1b5178           0x98         152   
.text                   0x9d1b5210           0x98         152  App's exec code 
.text.DRV_TMR_Close     0x9d1b52a8           0x94         148   
.text.chk_lock          0x9d1b533c           0x94         148   
.text.f_stat            0x9d1b53d0           0x94         148   
.text.DRV_TMR5_Initiali 0x9d1b5464           0x90         144   
.text.DRV_USBHS_ClientE 0x9d1b54f4           0x90         144   
.text.SYS_FS_Initialize 0x9d1b5584           0x90         144   
.text.SYS_FS_MEDIA_MANA 0x9d1b5614           0x90         144   
.text.IntHandlerDrvTmrI 0x9d1b56a4           0x8c         140   
.text.IntHandlerDrvTmrI 0x9d1b5730           0x8c         140   
.text.IntHandlerDrvTmrI 0x9d1b57bc           0x8c         140   
.text.SYSTEM_OKAY_Tasks 0x9d1b5848           0x8c         140   
.text.Alarm_GPT         0x9d1b58d4           0x88         136   
.text.Init_GPT          0x9d1b595c           0x88         136   
.text._USB_DEVICE_HID_D 0x9d1b59e4           0x88         136   
.text._DRV_SPI_SYS_QUEU 0x9d1b5a6c           0x84         132   
.text._USB_DEVICE_GetFu 0x9d1b5af0           0x84         132   
.text._USB_DEVICE_FindE 0x9d1b5b74           0x84         132   
.text.USB_DEVICE_Contro 0x9d1b5bf8           0x84         132   
.text                   0x9d1b5c7c           0x84         132  App's exec code 
.text.DRV_SPI_SetVTable 0x9d1b5d00           0x80         128   
.text.Fifo_Put          0x9d1b5d80           0x80         128   
.text.putc_bfd          0x9d1b5e00           0x80         128   
.text.disk_write        0x9d1b5e80           0x80         128   
.text.DRV_TMR0_Initiali 0x9d1b5f00           0x7c         124   
.text.DRV_TMR2_Initiali 0x9d1b5f7c           0x7c         124   
.text.move_window       0x9d1b5ff8           0x7c         124   
.text.f_putc            0x9d1b6074           0x7c         124   
.text.USB_DEVICE_Contro 0x9d1b60f0           0x7c         124   
.text.SYS_Tasks         0x9d1b616c           0x78         120   
.text.Fifo_Get          0x9d1b61e4           0x78         120   
.text.f_getclusters     0x9d1b625c           0x78         120   
.text.disk_ioctl        0x9d1b62d4           0x78         120   
.text.DRV_TMR1_Initiali 0x9d1b634c           0x74         116   
.text.APP_Tasks         0x9d1b63c0           0x74         116   
.text.DRV_NVM_CommandSt 0x9d1b6434           0x74         116   
.text.validate          0x9d1b64a8           0x74         116   
.text.f_closedir        0x9d1b651c           0x74         116   
.text.disk_read         0x9d1b6590           0x74         116   
.text.DRV_TMR3_Initiali 0x9d1b6604           0x6c         108   
.text.DRV_TMR3_CounterF 0x9d1b6670           0x6c         108   
.text.DRV_TMR5_Tasks    0x9d1b66dc           0x6c         108   
.text.DRV_USBHS_DEVICE_ 0x9d1b6748           0x6c         108   
.text.GPT_TimerCallback 0x9d1b67b4           0x68         104   
.text.DRV_NVM_Erase     0x9d1b681c           0x68         104   
.text.DRV_SPI_SYS_QUEUE 0x9d1b6884           0x68         104   
.text.APP_Initialize    0x9d1b68ec           0x64         100   
.text._DRV_USBHS_DEVICE 0x9d1b6950           0x64         100   
.text._DRV_USBHS_DEVICE 0x9d1b69b4           0x64         100   
.text.dec_lock          0x9d1b6a18           0x64         100   
.text.HID_Initialize    0x9d1b6a7c           0x60          96   
.text.DRV_SPI_SYS_QUEUE 0x9d1b6adc           0x60          96   
.text.DRV_SPI_SYS_QUEUE 0x9d1b6b3c           0x60          96   
.text.DRV_SPI_SYS_QUEUE 0x9d1b6b9c           0x60          96   
.text.DRV_SPI_SYS_QUEUE 0x9d1b6bfc           0x60          96   
.text.SYS_FS_MEDIA_MANA 0x9d1b6c5c           0x60          96   
.text.SYS_FS_MEDIA_MANA 0x9d1b6cbc           0x5c          92   
.text.USB_DEVICE_Endpoi 0x9d1b6d18           0x5c          92   
.text.SYS_DEVCON_System 0x9d1b6d74           0x58          88   
.text.USB_DEVICE_EventH 0x9d1b6dcc           0x58          88   
.text.USB_DEVICE_IRPSub 0x9d1b6e24           0x58          88   
.text.DRV_TMR5_AlarmReg 0x9d1b6e7c           0x54          84   
.text.f_close           0x9d1b6ed0           0x54          84   
.text.SYS_INT_SourceDis 0x9d1b6f24           0x54          84   
.text.main_entry        0x9d1b6f78           0x54          84   
.text.DRV_TMR_Open      0x9d1b6fcc           0x50          80   
.text.DRV_USART_ReadByt 0x9d1b701c           0x50          80   
.text.DRV_USART_Receive 0x9d1b706c           0x50          80   
.text.SYS_CLK_Periphera 0x9d1b70bc           0x50          80   
.text.DRV_SPI_SYS_QUEUE 0x9d1b710c           0x50          80   
.text.DRV_USBHS_DEVICE_ 0x9d1b715c           0x50          80   
.text.DRV_USBHS_DEVICE_ 0x9d1b71ac           0x50          80   
.text.USB_DEVICE_Detach 0x9d1b71fc           0x50          80   
.text.DRV_TMR0_CounterF 0x9d1b724c           0x4c          76   
.text.DRV_TMR1_CounterF 0x9d1b7298           0x4c          76   
.text.DRV_TMR2_CounterF 0x9d1b72e4           0x4c          76   
.text.DRV_TMR5_CounterF 0x9d1b7330           0x4c          76   
.text.DRV_USART_Initial 0x9d1b737c           0x4c          76   
.text.DRV_USART_Open    0x9d1b73c8           0x4c          76   
.text.GAMMA_Init        0x9d1b7414           0x4c          76   
.text.Flash_CRC16       0x9d1b7460           0x4c          76   
.text.ReadOneWriteZero  0x9d1b74ac           0x4c          76   
.text.DRV_USBHS_DEVICE_ 0x9d1b74f8           0x4c          76   
.text._DRV_USBHS_DEVICE 0x9d1b7544           0x4c          76   
.text.USB_DEVICE_Open   0x9d1b7590           0x4c          76   
.text._USB_DEVICE_Redir 0x9d1b75dc           0x4c          76   
.text.USB_DEVICE_HID_Ev 0x9d1b7628           0x4c          76   
.text.DRV_USART_Close   0x9d1b7674           0x48          72   
.text.SYS_DEVCON_System 0x9d1b76bc           0x48          72   
.text.ReadZeroWriteOne  0x9d1b7704           0x48          72   
.text._DRV_NVM_WriteBuf 0x9d1b774c           0x48          72   
.text.SYS_FS_MEDIA_MANA 0x9d1b7794           0x48          72   
.text.USB_DEVICE_Attach 0x9d1b77dc           0x48          72   
.text.USB_DEVICE_Endpoi 0x9d1b7824           0x48          72   
.text.USB_DEVICE_IRPCan 0x9d1b786c           0x48          72   
.text._bootstrap_except 0x9d1b78b4           0x48          72   
.text._cache_err_except 0x9d1b78fc           0x48          72   
.text._simple_tlb_refil 0x9d1b7944           0x48          72   
.text._DRV_NVM_ClientHa 0x9d1b798c           0x44          68   
.text                   0x9d1b79d0           0x44          68  App's exec code 
.text.DRV_TMR0_Stop     0x9d1b7a14           0x40          64   
.text.DRV_TMR1_Stop     0x9d1b7a54           0x40          64   
.text.DRV_TMR2_Stop     0x9d1b7a94           0x40          64   
.text.DRV_TMR3_Stop     0x9d1b7ad4           0x40          64   
.text._general_exceptio 0x9d1b7b14           0x40          64   
.text.DRV_NVM_EventHand 0x9d1b7b54           0x40          64   
.rodata                 0x9d1b7b94           0x40          64  Read-only const 
.text.ld_clust          0x9d1b7bd4           0x40          64   
.text.DRV_TMR0_Start    0x9d1b7c14           0x3c          60   
.text.DRV_TMR2_Start    0x9d1b7c50           0x3c          60   
.text.DRV_TMR3_Start    0x9d1b7c8c           0x3c          60   
.text.DRV_TMR_AlarmRegi 0x9d1b7cc8           0x3c          60   
.text.ReadZero          0x9d1b7d04           0x3c          60   
.text._DRV_TMR5_Resume  0x9d1b7d40           0x38          56   
.text.main              0x9d1b7d78           0x38          56   
.text.CLASSB_CPUPCTest  0x9d1b7db0           0x38          56   
.text.DRV_NVM_AddressGe 0x9d1b7de8           0x38          56   
.text._DRV_NVM_EraseBuf 0x9d1b7e20           0x38          56   
.text.DRV_USBHS_DEVICE_ 0x9d1b7e58           0x38          56   
.text._DRV_TMR5_Suspend 0x9d1b7e90           0x34          52   
.text.DRV_TMR1_Start    0x9d1b7ec4           0x34          52   
.text.DRV_TMR5_Stop     0x9d1b7ef8           0x34          52   
.rodata                 0x9d1b7f2c           0x34          52  Read-only const 
.text.SYS_FS_MEDIA_MANA 0x9d1b7f60           0x34          52   
.rodata                 0x9d1b7f94           0x30          48  Read-only const 
.text.DRV_USBHS_Close   0x9d1b7fc4           0x30          48   
.rodata                 0x9d1b7ff4           0x30          48  Read-only const 
.text.sum_sfn           0x9d1b8024           0x30          48   
.text.clust2sect        0x9d1b8054           0x30          48   
.text.DRV_TMR5_AlarmEna 0x9d1b8084           0x2c          44   
.text.DRV_TMR_AlarmEnab 0x9d1b80b0           0x2c          44   
.text._SYS_TMR_AlarmCal 0x9d1b80dc           0x2c          44   
.text.DRV_TMR5_Start    0x9d1b8108           0x28          40   
.text.CLASSB_CRCFlashTe 0x9d1b8130           0x28          40   
.text.DRV_NVM_GeometryG 0x9d1b8158           0x28          40   
.text._DRV_SPI_RootDriv 0x9d1b8180           0x28          40   
.text._SYS_FS_MEDIA_MAN 0x9d1b81a8           0x28          40   
.text.diskEventHandler  0x9d1b81d0           0x28          40   
.text._USB_DEVICE_Clien 0x9d1b81f8           0x28          40   
.text.DRV_TMR5_AlarmDis 0x9d1b8220           0x24          36   
.text._DRV_USBHS_DEVICE 0x9d1b8244           0x24          36   
.text.mem_cpy           0x9d1b8268           0x24          36   
.text.ff_wtoupper       0x9d1b828c           0x24          36   
.text.disk_initialize   0x9d1b82b0           0x24          36   
.text.Clear_Status      0x9d1b82d4           0x20          32   
.text.Prepare_Return_A  0x9d1b82f4           0x20          32   
.text.DRV_NVM_IsAttache 0x9d1b8314           0x20          32   
.text.DRV_SPI_Tasks     0x9d1b8334           0x20          32   
.text.SYS_INT_Disable   0x9d1b8354           0x20          32   
.text._USB_DEVICE_HID_G 0x9d1b8374           0x20          32   
.text.Set_Status        0x9d1b8394           0x1c          28   
.text.TEST_Tasks        0x9d1b83b0           0x1c          28   
.text.SPI_2_EventHandle 0x9d1b83cc           0x1c          28   
.text.NVM_FS_Initialize 0x9d1b83e8           0x1c          28   
.text.SYS_FS_Tasks      0x9d1b8404           0x1c          28   
.text.mem_set           0x9d1b8420           0x1c          28   
.text.clear_lock        0x9d1b843c           0x1c          28   
.text.get_fattime       0x9d1b8458           0x1c          28   
.text.SYS_INT_StatusGet 0x9d1b8474           0x1c          28   
.text.SYS_INT_StatusRes 0x9d1b8490           0x1c          28   
.text.DRV_USART0_Receiv 0x9d1b84ac           0x18          24   
.text.DRV_USART1_Receiv 0x9d1b84c4           0x18          24   
.text.f_chdrive         0x9d1b84dc           0x18          24   
.text                   0x9d1b84f4           0x18          24  App's exec code 
.text.DRV_TMR2_CounterV 0x9d1b850c           0x14          20   
.text.DRV_TMR5_CounterV 0x9d1b8520           0x14          20   
.text.DRV_USART0_ReadBy 0x9d1b8534           0x14          20   
.text.DRV_USART1_ReadBy 0x9d1b8548           0x14          20   
.text.SYS_DEVCON_Initia 0x9d1b855c           0x14          20   
.text.f_eof             0x9d1b8570           0x14          20   
.text.SYS_INT_Initializ 0x9d1b8584           0x14          20   
.rodata                 0x9d1b8598           0x14          20  Read-only const 
.text.DRV_TMR2_CounterC 0x9d1b85ac           0x10          16   
.text.DRV_TMR5_CounterC 0x9d1b85bc           0x10          16   
.text.SYS_CLK_SystemFre 0x9d1b85cc            0xc          12   
.rodata                 0x9d1b85d8            0xc          12  Read-only const 
.text.DRV_SPI_SYS_QUEUE 0x9d1b85e4            0xc          12   
.text.SYS_FS_MEDIA_MANA 0x9d1b85f0            0xc          12   
.text.f_error           0x9d1b85fc            0xc          12   
.text.DRV_USART_TasksRe 0x9d1b8608            0x8           8   
.text.DRV_USART_TasksEr 0x9d1b8610            0x8           8   
.text.DRV_USART0_Open   0x9d1b8618            0x8           8   
.text.DRV_USART0_Close  0x9d1b8620            0x8           8   
.text.DRV_USART1_Open   0x9d1b8628            0x8           8   
.text.DRV_USART1_Close  0x9d1b8630            0x8           8   
.text.SYS_CLK_Reference 0x9d1b8638            0x8           8   
.rodata                 0x9d1b8640            0x8           8  Read-only const 
.text.Fifo_Length       0x9d1b8648            0x8           8   
.text.DRV_USBHS_DEVICE_ 0x9d1b8650            0x8           8   
.text.DRV_USBHS_DEVICE_ 0x9d1b8658            0x8           8   
.text.DRV_USBHS_DEVICE_ 0x9d1b8660            0x8           8   
.rodata                 0x9d1b8668            0x8           8  Read-only const 
.text.f_tell            0x9d1b8670            0x8           8   
.text.f_size            0x9d1b8678            0x8           8   
.text.disk_status       0x9d1b8680            0x8           8   
.text._on_reset         0x9d1b8688            0x8           8   
.text._on_bootstrap     0x9d1b8690            0x8           8   
.text.CLASSB_CPUPCTestF 0x9d1c0000           0x10          16   
      Total kseg0_program_mem used  :     0x25c18      154648  7.4% of 0x200000

kseg0 Boot-Memory Usage
section                    address  length [bytes]      (dec)  Description
-------                 ----------  -------------------------  -----------
         Total kseg0_boot_mem used  :           0           0  

kseg1 Boot-Memory Usage
section                    address  length [bytes]      (dec)  Description
-------                 ----------  -------------------------  -----------
.reset                  0xbfc00000          0x1c4         452  Reset handler 
.bev_excpt              0xbfc00380           0x10          16  BEV-Exception 
         Total kseg1_boot_mem used  :       0x1d4         468  40.6% of 0x480
        --------------------------------------------------------------------------
         Total Program Memory used  :     0x25dec      155116  7.4% of 0x200480
        --------------------------------------------------------------------------


kseg0 Data-Memory Usage
section                    address  length [bytes]      (dec)  Description
-------                 ----------  -------------------------  -----------
reserve_data_0_kseg0    0x80000000          0x380         896   
.sdata                  0x80000380           0x30          48  Small init data 
.sbss                   0x800003b0           0x8c         140  Small uninit data 
.bss                    0x80000440          0xdfc        3580  Uninitialized data 
.bss                    0x80006150          0x7bc        1980  Uninitialized data 
.bss                    0x8000690c          0x390         912  Uninitialized data 
.bss                    0x80006c9c           0x90         144  Uninitialized data 
.data                   0x80006d2c           0xdc         220  Initialized data 
.data                   0x80006e08           0x54          84  Initialized data 
.bss                    0x80006e5c           0x24          36  Uninitialized data 
         Total kseg0_data_mem used  :      0x1f68        8040  1.5% of 0x80000

kseg1 Data-Memory Usage
section                    address  length [bytes]      (dec)  Description
-------                 ----------  -------------------------  -----------
reserve_data_0_kseg1    0xa0000000          0x380         896   
         Total kseg1_data_mem used  :       0x380         896  100.0% of 0x380
        --------------------------------------------------------------------------
            Total Data Memory used  :      0x22e8        8936  1.7% of 0x80380
        --------------------------------------------------------------------------


Dynamic Data-Memory Reservation
section                    address  length [bytes]      (dec)  Description
-------                 ----------  -------------------------  -----------
heap                    0x80006e88          0x200         512  Reserved for heap 
stack                   0x800070a0        0x78f58      495448  Reserved for stack 

        --------------------------------------------------------------------------

Discarded input sections

 .text          0x00000000        0x0 c:/program files/microchip/xc32/v2.50/bin/bin/../../lib/gcc/pic32mx/4.8.3/../../../../pic32mx/lib/fpu64\software-debug-break.o
 .data          0x00000000        0x0 c:/program files/microchip/xc32/v2.50/bin/bin/../../lib/gcc/pic32mx/4.8.3/../../../../pic32mx/lib/fpu64\software-debug-break.o
 .bss           0x00000000        0x0 c:/program files/microchip/xc32/v2.50/bin/bin/../../lib/gcc/pic32mx/4.8.3/../../../../pic32mx/lib/fpu64\software-debug-break.o
 .text          0x00000000        0x0 build/default/debug/_ext/977502197/drv_spi_tasks.o
 .data          0x00000000        0x0 build/default/debug/_ext/977502197/drv_spi_tasks.o
 .bss           0x00000000        0x0 build/default/debug/_ext/977502197/drv_spi_tasks.o
 .reginfo       0x00000000       0x18 build/default/debug/_ext/977502197/drv_spi_tasks.o
 .text          0x00000000        0x0 build/default/debug/_ext/977502197/drv_spi_api.o
 .data          0x00000000        0x0 build/default/debug/_ext/977502197/drv_spi_api.o
 .bss           0x00000000        0x0 build/default/debug/_ext/977502197/drv_spi_api.o
 .reginfo       0x00000000       0x18 build/default/debug/_ext/977502197/drv_spi_api.o
 .text          0x00000000        0x0 build/default/debug/_ext/977502197/drv_spi_master_ebm_tasks.o
 .data          0x00000000        0x0 build/default/debug/_ext/977502197/drv_spi_master_ebm_tasks.o
 .bss           0x00000000        0x0 build/default/debug/_ext/977502197/drv_spi_master_ebm_tasks.o
 .reginfo       0x00000000       0x18 build/default/debug/_ext/977502197/drv_spi_master_ebm_tasks.o
 .text          0x00000000        0x0 build/default/debug/_ext/1407244131/drv_tmr_static.o
 .data          0x00000000        0x0 build/default/debug/_ext/1407244131/drv_tmr_static.o
 .reginfo       0x00000000       0x18 build/default/debug/_ext/1407244131/drv_tmr_static.o
 .text._DRV_TMR_ClockSourceSet
                0x00000000       0x94 build/default/debug/_ext/1407244131/drv_tmr_static.o
 .text.DRV_TMR0_ClientStatus
                0x00000000       0x14 build/default/debug/_ext/1407244131/drv_tmr_static.o
 .text.DRV_TMR0_CounterValueSet
                0x00000000       0x14 build/default/debug/_ext/1407244131/drv_tmr_static.o
 .text.DRV_TMR0_CounterValueGet
                0x00000000       0x14 build/default/debug/_ext/1407244131/drv_tmr_static.o
 .text.DRV_TMR0_CounterClear
                0x00000000       0x10 build/default/debug/_ext/1407244131/drv_tmr_static.o
 .text.DRV_TMR0_DividerRangeGet
                0x00000000       0x2c build/default/debug/_ext/1407244131/drv_tmr_static.o
 .text.DRV_TMR0_PrescalerGet
                0x00000000       0xa4 build/default/debug/_ext/1407244131/drv_tmr_static.o
 .text.DRV_TMR0_PeriodValueSet
                0x00000000       0x14 build/default/debug/_ext/1407244131/drv_tmr_static.o
 .text.DRV_TMR0_PeriodValueGet
                0x00000000       0x14 build/default/debug/_ext/1407244131/drv_tmr_static.o
 .text.DRV_TMR0_StopInIdleDisable
                0x00000000       0x14 build/default/debug/_ext/1407244131/drv_tmr_static.o
 .text.DRV_TMR0_StopInIdleEnable
                0x00000000       0x14 build/default/debug/_ext/1407244131/drv_tmr_static.o
 .text.DRV_TMR0_ClockSet
                0x00000000       0xb8 build/default/debug/_ext/1407244131/drv_tmr_static.o
 .text.DRV_TMR1_ClientStatus
                0x00000000       0x14 build/default/debug/_ext/1407244131/drv_tmr_static.o
 .text.DRV_TMR1_CounterValueSet
                0x00000000       0x14 build/default/debug/_ext/1407244131/drv_tmr_static.o
 .text.DRV_TMR1_CounterValueGet
                0x00000000       0x14 build/default/debug/_ext/1407244131/drv_tmr_static.o
 .text.DRV_TMR1_CounterClear
                0x00000000       0x10 build/default/debug/_ext/1407244131/drv_tmr_static.o
 .text.DRV_TMR1_DividerRangeGet
                0x00000000       0x2c build/default/debug/_ext/1407244131/drv_tmr_static.o
 .text.DRV_TMR1_PrescalerGet
                0x00000000       0xa4 build/default/debug/_ext/1407244131/drv_tmr_static.o
 .text.DRV_TMR1_PeriodValueSet
                0x00000000       0x14 build/default/debug/_ext/1407244131/drv_tmr_static.o
 .text.DRV_TMR1_PeriodValueGet
                0x00000000       0x14 build/default/debug/_ext/1407244131/drv_tmr_static.o
 .text.DRV_TMR1_StopInIdleDisable
                0x00000000       0x14 build/default/debug/_ext/1407244131/drv_tmr_static.o
 .text.DRV_TMR1_StopInIdleEnable
                0x00000000       0x14 build/default/debug/_ext/1407244131/drv_tmr_static.o
 .text.DRV_TMR1_ClockSet
                0x00000000       0xb8 build/default/debug/_ext/1407244131/drv_tmr_static.o
 .text.DRV_TMR2_ClientStatus
                0x00000000       0x14 build/default/debug/_ext/1407244131/drv_tmr_static.o
 .text.DRV_TMR2_CounterValueSet
                0x00000000       0x14 build/default/debug/_ext/1407244131/drv_tmr_static.o
 .text.DRV_TMR2_DividerRangeGet
                0x00000000       0x2c build/default/debug/_ext/1407244131/drv_tmr_static.o
 .text.DRV_TMR2_PrescalerGet
                0x00000000       0xa4 build/default/debug/_ext/1407244131/drv_tmr_static.o
 .text.DRV_TMR2_PeriodValueSet
                0x00000000       0x14 build/default/debug/_ext/1407244131/drv_tmr_static.o
 .text.DRV_TMR2_PeriodValueGet
                0x00000000       0x14 build/default/debug/_ext/1407244131/drv_tmr_static.o
 .text.DRV_TMR2_StopInIdleDisable
                0x00000000       0x14 build/default/debug/_ext/1407244131/drv_tmr_static.o
 .text.DRV_TMR2_StopInIdleEnable
                0x00000000       0x14 build/default/debug/_ext/1407244131/drv_tmr_static.o
 .text.DRV_TMR2_ClockSet
                0x00000000       0xb8 build/default/debug/_ext/1407244131/drv_tmr_static.o
 .text.DRV_TMR3_ClientStatus
                0x00000000       0x14 build/default/debug/_ext/1407244131/drv_tmr_static.o
 .text.DRV_TMR3_CounterValueSet
                0x00000000       0x14 build/default/debug/_ext/1407244131/drv_tmr_static.o
 .text.DRV_TMR3_CounterValueGet
                0x00000000       0x10 build/default/debug/_ext/1407244131/drv_tmr_static.o
 .text.DRV_TMR3_CounterClear
                0x00000000       0x10 build/default/debug/_ext/1407244131/drv_tmr_static.o
 .text.DRV_TMR3_DividerRangeGet
                0x00000000       0x2c build/default/debug/_ext/1407244131/drv_tmr_static.o
 .text.DRV_TMR3_PrescalerGet
                0x00000000       0x40 build/default/debug/_ext/1407244131/drv_tmr_static.o
 .text.DRV_TMR3_PeriodValueSet
                0x00000000       0x14 build/default/debug/_ext/1407244131/drv_tmr_static.o
 .text.DRV_TMR3_PeriodValueGet
                0x00000000       0x10 build/default/debug/_ext/1407244131/drv_tmr_static.o
 .text.DRV_TMR3_StopInIdleDisable
                0x00000000       0x14 build/default/debug/_ext/1407244131/drv_tmr_static.o
 .text.DRV_TMR3_StopInIdleEnable
                0x00000000       0x14 build/default/debug/_ext/1407244131/drv_tmr_static.o
 .text.DRV_TMR3_ClockSet
                0x00000000      0x13c build/default/debug/_ext/1407244131/drv_tmr_static.o
 .text.DRV_TMR5_ClientStatus
                0x00000000       0x14 build/default/debug/_ext/1407244131/drv_tmr_static.o
 .text.DRV_TMR5_CounterValueSet
                0x00000000       0x14 build/default/debug/_ext/1407244131/drv_tmr_static.o
 .text.DRV_TMR5_DividerRangeGet
                0x00000000       0x2c build/default/debug/_ext/1407244131/drv_tmr_static.o
 .text.DRV_TMR5_PrescalerGet
                0x00000000       0xa4 build/default/debug/_ext/1407244131/drv_tmr_static.o
 .text.DRV_TMR5_PeriodValueSet
                0x00000000       0x14 build/default/debug/_ext/1407244131/drv_tmr_static.o
 .text.DRV_TMR5_PeriodValueGet
                0x00000000       0x14 build/default/debug/_ext/1407244131/drv_tmr_static.o
 .text.DRV_TMR5_StopInIdleDisable
                0x00000000       0x14 build/default/debug/_ext/1407244131/drv_tmr_static.o
 .text.DRV_TMR5_StopInIdleEnable
                0x00000000       0x14 build/default/debug/_ext/1407244131/drv_tmr_static.o
 .text.DRV_TMR5_ClockSet
                0x00000000       0x74 build/default/debug/_ext/1407244131/drv_tmr_static.o
 .text.DRV_TMR5_AlarmPeriodSet
                0x00000000       0x40 build/default/debug/_ext/1407244131/drv_tmr_static.o
 .text.DRV_TMR5_AlarmPeriodGet
                0x00000000       0x14 build/default/debug/_ext/1407244131/drv_tmr_static.o
 .text.DRV_TMR5_AlarmDeregister
                0x00000000       0x14 build/default/debug/_ext/1407244131/drv_tmr_static.o
 .text.DRV_TMR5_AlarmHasElapsed
                0x00000000       0x14 build/default/debug/_ext/1407244131/drv_tmr_static.o
 .text          0x00000000        0x0 build/default/debug/_ext/1407244131/drv_tmr_mapping.o
 .data          0x00000000        0x0 build/default/debug/_ext/1407244131/drv_tmr_mapping.o
 .bss           0x00000000        0x0 build/default/debug/_ext/1407244131/drv_tmr_mapping.o
 .reginfo       0x00000000       0x18 build/default/debug/_ext/1407244131/drv_tmr_mapping.o
 .text.DRV_TMR_Initialize
                0x00000000       0xa0 build/default/debug/_ext/1407244131/drv_tmr_mapping.o
 .text.DRV_TMR_Deinitialize
                0x00000000       0x94 build/default/debug/_ext/1407244131/drv_tmr_mapping.o
 .text.DRV_TMR_Status
                0x00000000        0x8 build/default/debug/_ext/1407244131/drv_tmr_mapping.o
 .text.DRV_TMR_Tasks
                0x00000000       0x2c build/default/debug/_ext/1407244131/drv_tmr_mapping.o
 .text.DRV_TMR_ClientStatus
                0x00000000       0xa0 build/default/debug/_ext/1407244131/drv_tmr_mapping.o
 .text.DRV_TMR_CounterValueSet
                0x00000000       0x94 build/default/debug/_ext/1407244131/drv_tmr_mapping.o
 .text.DRV_TMR_CounterValueGet
                0x00000000       0xa0 build/default/debug/_ext/1407244131/drv_tmr_mapping.o
 .text.DRV_TMR_CounterClear
                0x00000000       0x94 build/default/debug/_ext/1407244131/drv_tmr_mapping.o
 .text.DRV_TMR_AlarmDisable
                0x00000000       0x34 build/default/debug/_ext/1407244131/drv_tmr_mapping.o
 .text.DRV_TMR_AlarmPeriodSet
                0x00000000       0x2c build/default/debug/_ext/1407244131/drv_tmr_mapping.o
 .text.DRV_TMR_AlarmPeriodGet
                0x00000000       0x34 build/default/debug/_ext/1407244131/drv_tmr_mapping.o
 .text.DRV_TMR_AlarmDeregister
                0x00000000       0x2c build/default/debug/_ext/1407244131/drv_tmr_mapping.o
 .text.DRV_TMR_Stop
                0x00000000       0x94 build/default/debug/_ext/1407244131/drv_tmr_mapping.o
 .text.DRV_TMR_AlarmHasElapsed
                0x00000000       0x34 build/default/debug/_ext/1407244131/drv_tmr_mapping.o
 .text.DRV_TMR_OperationModeGet
                0x00000000       0x28 build/default/debug/_ext/1407244131/drv_tmr_mapping.o
 .text.DRV_TMR_ClockSet
                0x00000000       0xb4 build/default/debug/_ext/1407244131/drv_tmr_mapping.o
 .text.DRV_TMR_PrescalerGet
                0x00000000       0xa0 build/default/debug/_ext/1407244131/drv_tmr_mapping.o
 .text.DRV_TMR_GateModeSet
                0x00000000        0x8 build/default/debug/_ext/1407244131/drv_tmr_mapping.o
 .text.DRV_TMR_GateModeClear
                0x00000000        0x8 build/default/debug/_ext/1407244131/drv_tmr_mapping.o
 .text.DRV_TMR_DividerRangeGet
                0x00000000       0xa0 build/default/debug/_ext/1407244131/drv_tmr_mapping.o
 .text          0x00000000        0x0 build/default/debug/_ext/327000265/drv_usart_mapping.o
 .data          0x00000000        0x0 build/default/debug/_ext/327000265/drv_usart_mapping.o
 .bss           0x00000000        0x0 build/default/debug/_ext/327000265/drv_usart_mapping.o
 .reginfo       0x00000000       0x18 build/default/debug/_ext/327000265/drv_usart_mapping.o
 .text.DRV_USART_Deinitialize
                0x00000000       0x44 build/default/debug/_ext/327000265/drv_usart_mapping.o
 .text.DRV_USART_Status
                0x00000000       0x4c build/default/debug/_ext/327000265/drv_usart_mapping.o
 .text.DRV_USART_ClientStatus
                0x00000000       0x50 build/default/debug/_ext/327000265/drv_usart_mapping.o
 .text.DRV_USART_TransferStatus
                0x00000000       0x50 build/default/debug/_ext/327000265/drv_usart_mapping.o
 .text.DRV_USART_ErrorGet
                0x00000000       0x50 build/default/debug/_ext/327000265/drv_usart_mapping.o
 .text.DRV_USART_WriteByte
                0x00000000       0x48 build/default/debug/_ext/327000265/drv_usart_mapping.o
 .text.DRV_USART_ReceiverBufferSizeGet
                0x00000000       0x50 build/default/debug/_ext/327000265/drv_usart_mapping.o
 .text.DRV_USART_TransmitBufferSizeGet
                0x00000000       0x50 build/default/debug/_ext/327000265/drv_usart_mapping.o
 .text.DRV_USART_TransmitBufferIsFull
                0x00000000       0x50 build/default/debug/_ext/327000265/drv_usart_mapping.o
 .text.DRV_USART_BaudSet
                0x00000000       0x50 build/default/debug/_ext/327000265/drv_usart_mapping.o
 .text.DRV_USART_LineControlSet
                0x00000000       0x50 build/default/debug/_ext/327000265/drv_usart_mapping.o
 .text          0x00000000        0x0 build/default/debug/_ext/327000265/drv_usart_static.o
 .data          0x00000000        0x0 build/default/debug/_ext/327000265/drv_usart_static.o
 .bss           0x00000000        0x0 build/default/debug/_ext/327000265/drv_usart_static.o
 .reginfo       0x00000000       0x18 build/default/debug/_ext/327000265/drv_usart_static.o
 .text.DRV_USART0_Deinitialize
                0x00000000       0x14 build/default/debug/_ext/327000265/drv_usart_static.o
 .text.DRV_USART0_Status
                0x00000000        0x8 build/default/debug/_ext/327000265/drv_usart_static.o
 .text.DRV_USART0_ClientStatus
                0x00000000        0x8 build/default/debug/_ext/327000265/drv_usart_static.o
 .text.DRV_USART0_TransferStatus
                0x00000000       0x48 build/default/debug/_ext/327000265/drv_usart_static.o
 .text.DRV_USART0_ErrorGet
                0x00000000        0xc build/default/debug/_ext/327000265/drv_usart_static.o
 .text._DRV_USART0_ErrorConditionClear
                0x00000000       0x88 build/default/debug/_ext/327000265/drv_usart_static.o
 .text.DRV_USART0_BaudSet
                0x00000000       0xc8 build/default/debug/_ext/327000265/drv_usart_static.o
 .text.DRV_USART0_LineControlSet
                0x00000000       0x3c build/default/debug/_ext/327000265/drv_usart_static.o
 .text.DRV_USART1_Deinitialize
                0x00000000       0x14 build/default/debug/_ext/327000265/drv_usart_static.o
 .text.DRV_USART1_Status
                0x00000000        0x8 build/default/debug/_ext/327000265/drv_usart_static.o
 .text.DRV_USART1_ClientStatus
                0x00000000        0x8 build/default/debug/_ext/327000265/drv_usart_static.o
 .text.DRV_USART1_TransferStatus
                0x00000000       0x48 build/default/debug/_ext/327000265/drv_usart_static.o
 .text.DRV_USART1_ErrorGet
                0x00000000        0xc build/default/debug/_ext/327000265/drv_usart_static.o
 .text._DRV_USART1_ErrorConditionClear
                0x00000000       0x88 build/default/debug/_ext/327000265/drv_usart_static.o
 .text.DRV_USART1_BaudSet
                0x00000000       0xc8 build/default/debug/_ext/327000265/drv_usart_static.o
 .text.DRV_USART1_LineControlSet
                0x00000000       0x3c build/default/debug/_ext/327000265/drv_usart_static.o
 .text          0x00000000        0x0 build/default/debug/_ext/327000265/drv_usart_static_byte_model.o
 .data          0x00000000        0x0 build/default/debug/_ext/327000265/drv_usart_static_byte_model.o
 .bss           0x00000000        0x0 build/default/debug/_ext/327000265/drv_usart_static_byte_model.o
 .reginfo       0x00000000       0x18 build/default/debug/_ext/327000265/drv_usart_static_byte_model.o
 .text.DRV_USART0_WriteByte
                0x00000000       0x24 build/default/debug/_ext/327000265/drv_usart_static_byte_model.o
 .text.DRV_USART0_ReceiverBufferSizeGet
                0x00000000        0x8 build/default/debug/_ext/327000265/drv_usart_static_byte_model.o
 .text.DRV_USART0_TransmitBufferSizeGet
                0x00000000        0x8 build/default/debug/_ext/327000265/drv_usart_static_byte_model.o
 .text.DRV_USART0_TransmitBufferIsFull
                0x00000000       0x14 build/default/debug/_ext/327000265/drv_usart_static_byte_model.o
 .text.DRV_USART1_WriteByte
                0x00000000       0x24 build/default/debug/_ext/327000265/drv_usart_static_byte_model.o
 .text.DRV_USART1_ReceiverBufferSizeGet
                0x00000000        0x8 build/default/debug/_ext/327000265/drv_usart_static_byte_model.o
 .text.DRV_USART1_TransmitBufferSizeGet
                0x00000000        0x8 build/default/debug/_ext/327000265/drv_usart_static_byte_model.o
 .text.DRV_USART1_TransmitBufferIsFull
                0x00000000       0x14 build/default/debug/_ext/327000265/drv_usart_static_byte_model.o
 .text          0x00000000        0x0 build/default/debug/_ext/639803181/sys_clk_pic32mz.o
 .data          0x00000000        0x0 build/default/debug/_ext/639803181/sys_clk_pic32mz.o
 .bss           0x00000000        0x0 build/default/debug/_ext/639803181/sys_clk_pic32mz.o
 .reginfo       0x00000000       0x18 build/default/debug/_ext/639803181/sys_clk_pic32mz.o
 .text.SYS_CLK_SecondaryOscillatorEnable
                0x00000000       0x48 build/default/debug/_ext/639803181/sys_clk_pic32mz.o
 .text.SYS_CLK_SecondaryOscillatorDisable
                0x00000000       0x48 build/default/debug/_ext/639803181/sys_clk_pic32mz.o
 .text.SYS_CLK_SecondaryOscillatorIsEnabled
                0x00000000       0x10 build/default/debug/_ext/639803181/sys_clk_pic32mz.o
 .text          0x00000000        0x0 build/default/debug/_ext/340578644/sys_devcon.o
 .data          0x00000000        0x0 build/default/debug/_ext/340578644/sys_devcon.o
 .bss           0x00000000        0x0 build/default/debug/_ext/340578644/sys_devcon.o
 .reginfo       0x00000000       0x18 build/default/debug/_ext/340578644/sys_devcon.o
 .text.SYS_DEVCON_Reinitialize
                0x00000000       0x10 build/default/debug/_ext/340578644/sys_devcon.o
 .text.SYS_DEVCON_Deinitialize
                0x00000000        0x8 build/default/debug/_ext/340578644/sys_devcon.o
 .text.SYS_DEVCON_Status
                0x00000000        0x8 build/default/debug/_ext/340578644/sys_devcon.o
 .text.SYS_DEVCON_Tasks
                0x00000000        0x8 build/default/debug/_ext/340578644/sys_devcon.o
 .text.SYS_DEVCON_JTAGEnable
                0x00000000       0x18 build/default/debug/_ext/340578644/sys_devcon.o
 .text.SYS_DEVCON_JTAGDisable
                0x00000000       0x18 build/default/debug/_ext/340578644/sys_devcon.o
 .text.SYS_DEVCON_TraceEnable
                0x00000000       0x1c build/default/debug/_ext/340578644/sys_devcon.o
 .text.SYS_DEVCON_TraceDisable
                0x00000000       0x18 build/default/debug/_ext/340578644/sys_devcon.o
 .text.SYS_DEVCON_PowerModeEnter
                0x00000000       0x44 build/default/debug/_ext/340578644/sys_devcon.o
 .text          0x00000000        0x0 build/default/debug/_ext/340578644/sys_devcon_pic32mz.o
 .data          0x00000000        0x0 build/default/debug/_ext/340578644/sys_devcon_pic32mz.o
 .bss           0x00000000        0x0 build/default/debug/_ext/340578644/sys_devcon_pic32mz.o
 .reginfo       0x00000000       0x18 build/default/debug/_ext/340578644/sys_devcon_pic32mz.o
 .text.SYS_DEVCON_CacheInit
                0x00000000       0x24 build/default/debug/_ext/340578644/sys_devcon_pic32mz.o
 .text.SYS_DEVCON_CacheFlush
                0x00000000       0x24 build/default/debug/_ext/340578644/sys_devcon_pic32mz.o
 .text.SYS_DEVCON_DataCacheFlush
                0x00000000       0x24 build/default/debug/_ext/340578644/sys_devcon_pic32mz.o
 .text.SYS_DEVCON_InstructionCacheFlush
                0x00000000       0x24 build/default/debug/_ext/340578644/sys_devcon_pic32mz.o
 .text.SYS_DEVCON_CacheClean
                0x00000000       0x24 build/default/debug/_ext/340578644/sys_devcon_pic32mz.o
 .text.SYS_DEVCON_DataCacheClean
                0x00000000       0x24 build/default/debug/_ext/340578644/sys_devcon_pic32mz.o
 .text.SYS_DEVCON_DataCacheInvalidate
                0x00000000       0x24 build/default/debug/_ext/340578644/sys_devcon_pic32mz.o
 .text.SYS_DEVCON_InstructionCacheInvalidate
                0x00000000       0x24 build/default/debug/_ext/340578644/sys_devcon_pic32mz.o
 .text.SYS_DEVCON_InstructionCacheLock
                0x00000000       0x24 build/default/debug/_ext/340578644/sys_devcon_pic32mz.o
 .text.SYS_DEVCON_DataCacheLock
                0x00000000       0x24 build/default/debug/_ext/340578644/sys_devcon_pic32mz.o
 .text.SYS_DEVCON_CacheSync
                0x00000000       0x24 build/default/debug/_ext/340578644/sys_devcon_pic32mz.o
 .text.SYS_DEVCON_CacheCoherencySet
                0x00000000       0x28 build/default/debug/_ext/340578644/sys_devcon_pic32mz.o
 .text.SYS_DEVCON_CacheCoherencyGet
                0x00000000       0x1c build/default/debug/_ext/340578644/sys_devcon_pic32mz.o
 .text.SYS_DEVCON_DataCacheAssociativityGet
                0x00000000       0x24 build/default/debug/_ext/340578644/sys_devcon_pic32mz.o
 .text.SYS_DEVCON_InstructionCacheAssociativityGet
                0x00000000       0x24 build/default/debug/_ext/340578644/sys_devcon_pic32mz.o
 .text.SYS_DEVCON_DataCacheLineSizeGet
                0x00000000       0x24 build/default/debug/_ext/340578644/sys_devcon_pic32mz.o
 .text.SYS_DEVCON_InstructionCacheLineSizeGet
                0x00000000       0x24 build/default/debug/_ext/340578644/sys_devcon_pic32mz.o
 .text.SYS_DEVCON_DataCacheLinesPerWayGet
                0x00000000       0x24 build/default/debug/_ext/340578644/sys_devcon_pic32mz.o
 .text.SYS_DEVCON_InstructionCacheLinesPerWayGet
                0x00000000       0x24 build/default/debug/_ext/340578644/sys_devcon_pic32mz.o
 .text.SYS_DEVCON_DataCacheSizeGet
                0x00000000       0x24 build/default/debug/_ext/340578644/sys_devcon_pic32mz.o
 .text.SYS_DEVCON_InstructionCacheSizeGet
                0x00000000       0x24 build/default/debug/_ext/340578644/sys_devcon_pic32mz.o
 .text          0x00000000      0x6bc build/default/debug/_ext/340578644/sys_devcon_cache_pic32mz.o
 .data          0x00000000        0x0 build/default/debug/_ext/340578644/sys_devcon_cache_pic32mz.o
 .bss           0x00000000        0x0 build/default/debug/_ext/340578644/sys_devcon_cache_pic32mz.o
 .reginfo       0x00000000       0x18 build/default/debug/_ext/340578644/sys_devcon_cache_pic32mz.o
 .debug_line    0x00000000      0x220 build/default/debug/_ext/340578644/sys_devcon_cache_pic32mz.o
 .debug_info    0x00000000       0xd8 build/default/debug/_ext/340578644/sys_devcon_cache_pic32mz.o
 .debug_abbrev  0x00000000       0x14 build/default/debug/_ext/340578644/sys_devcon_cache_pic32mz.o
 .debug_aranges
                0x00000000       0x20 build/default/debug/_ext/340578644/sys_devcon_cache_pic32mz.o
 .text          0x00000000        0x0 build/default/debug/_ext/822048611/sys_ports_static.o
 .data          0x00000000        0x0 build/default/debug/_ext/822048611/sys_ports_static.o
 .bss           0x00000000        0x0 build/default/debug/_ext/822048611/sys_ports_static.o
 .reginfo       0x00000000       0x18 build/default/debug/_ext/822048611/sys_ports_static.o
 .text.SYS_PORTS_Read
                0x00000000       0x24 build/default/debug/_ext/822048611/sys_ports_static.o
 .text.SYS_PORTS_Write
                0x00000000       0x28 build/default/debug/_ext/822048611/sys_ports_static.o
 .text.SYS_PORTS_LatchedGet
                0x00000000        0x8 build/default/debug/_ext/822048611/sys_ports_static.o
 .text.SYS_PORTS_Set
                0x00000000       0x2c build/default/debug/_ext/822048611/sys_ports_static.o
 .text.SYS_PORTS_Clear
                0x00000000       0x28 build/default/debug/_ext/822048611/sys_ports_static.o
 .text.SYS_PORTS_DirectionSelect
                0x00000000       0x54 build/default/debug/_ext/822048611/sys_ports_static.o
 .text.SYS_PORTS_DirectionGet
                0x00000000       0x24 build/default/debug/_ext/822048611/sys_ports_static.o
 .text.SYS_PORTS_Toggle
                0x00000000       0x28 build/default/debug/_ext/822048611/sys_ports_static.o
 .text.SYS_PORTS_OpenDrainEnable
                0x00000000       0x28 build/default/debug/_ext/822048611/sys_ports_static.o
 .text.SYS_PORTS_OpenDrainDisable
                0x00000000       0x28 build/default/debug/_ext/822048611/sys_ports_static.o
 .text.SYS_PORTS_InterruptStatusGet
                0x00000000        0x8 build/default/debug/_ext/822048611/sys_ports_static.o
 .text.SYS_PORTS_ChangeNotificationGlobalEnable
                0x00000000        0x8 build/default/debug/_ext/822048611/sys_ports_static.o
 .text.SYS_PORTS_ChangeNotificationGlobalDisable
                0x00000000        0x8 build/default/debug/_ext/822048611/sys_ports_static.o
 .text.SYS_PORTS_GlobalChangeNotificationDisable
                0x00000000        0x8 build/default/debug/_ext/822048611/sys_ports_static.o
 .text.SYS_PORTS_ChangeNotificationEnable
                0x00000000        0x8 build/default/debug/_ext/822048611/sys_ports_static.o
 .text.SYS_PORTS_ChangeNotificationDisable
                0x00000000        0x8 build/default/debug/_ext/822048611/sys_ports_static.o
 .text.SYS_PORTS_ChangeNotificationInIdleModeEnable
                0x00000000        0x8 build/default/debug/_ext/822048611/sys_ports_static.o
 .text.SYS_PORTS_ChangeNotificationInIdleModeDisable
                0x00000000        0x8 build/default/debug/_ext/822048611/sys_ports_static.o
 .text.SYS_PORTS_ChangeNotificationPullUpEnable
                0x00000000        0x8 build/default/debug/_ext/822048611/sys_ports_static.o
 .text.SYS_PORTS_ChangeNotificationPullUpDisable
                0x00000000        0x8 build/default/debug/_ext/822048611/sys_ports_static.o
 .text.SYS_PORTS_PinModeSelect
                0x00000000       0x64 build/default/debug/_ext/822048611/sys_ports_static.o
 .text.SYS_PORTS_PinWrite
                0x00000000       0x60 build/default/debug/_ext/822048611/sys_ports_static.o
 .text.SYS_PORTS_PinLatchedGet
                0x00000000        0x8 build/default/debug/_ext/822048611/sys_ports_static.o
 .text.SYS_PORTS_PinRead
                0x00000000       0x28 build/default/debug/_ext/822048611/sys_ports_static.o
 .text.SYS_PORTS_PinToggle
                0x00000000       0x30 build/default/debug/_ext/822048611/sys_ports_static.o
 .text.SYS_PORTS_PinSet
                0x00000000       0x30 build/default/debug/_ext/822048611/sys_ports_static.o
 .text.SYS_PORTS_PinClear
                0x00000000       0x30 build/default/debug/_ext/822048611/sys_ports_static.o
 .text.SYS_PORTS_PinDirectionSelect
                0x00000000       0x60 build/default/debug/_ext/822048611/sys_ports_static.o
 .text.SYS_PORTS_PinOpenDrainEnable
                0x00000000       0x30 build/default/debug/_ext/822048611/sys_ports_static.o
 .text.SYS_PORTS_PinOpenDrainDisable
                0x00000000       0x30 build/default/debug/_ext/822048611/sys_ports_static.o
 .text.SYS_PORTS_PinPullUpEnable
                0x00000000        0x8 build/default/debug/_ext/822048611/sys_ports_static.o
 .text.SYS_PORTS_PinPullUpDisable
                0x00000000        0x8 build/default/debug/_ext/822048611/sys_ports_static.o
 .text.SYS_PORTS_PinPullDownEnable
                0x00000000        0x8 build/default/debug/_ext/822048611/sys_ports_static.o
 .text.SYS_PORTS_PinPullDownDisable
                0x00000000        0x8 build/default/debug/_ext/822048611/sys_ports_static.o
 .text.SYS_PORTS_InterruptEnable
                0x00000000        0x8 build/default/debug/_ext/822048611/sys_ports_static.o
 .text.SYS_PORTS_RemapInput
                0x00000000       0x5c build/default/debug/_ext/822048611/sys_ports_static.o
 .text.SYS_PORTS_RemapOutput
                0x00000000       0x68 build/default/debug/_ext/822048611/sys_ports_static.o
 .text          0x00000000        0x0 build/default/debug/_ext/1688732426/system_init.o
 .bss           0x00000000        0x0 build/default/debug/_ext/1688732426/system_init.o
 .reginfo       0x00000000       0x18 build/default/debug/_ext/1688732426/system_init.o
 .text          0x00000000        0x0 build/default/debug/_ext/1688732426/system_interrupt.o
 .data          0x00000000        0x0 build/default/debug/_ext/1688732426/system_interrupt.o
 .bss           0x00000000        0x0 build/default/debug/_ext/1688732426/system_interrupt.o
 .reginfo       0x00000000       0x18 build/default/debug/_ext/1688732426/system_interrupt.o
 .text          0x00000000        0x0 build/default/debug/_ext/1688732426/system_exceptions.o
 .data          0x00000000        0x0 build/default/debug/_ext/1688732426/system_exceptions.o
 .bss           0x00000000        0x0 build/default/debug/_ext/1688732426/system_exceptions.o
 .reginfo       0x00000000       0x18 build/default/debug/_ext/1688732426/system_exceptions.o
 .text          0x00000000        0x0 build/default/debug/_ext/1688732426/system_tasks.o
 .data          0x00000000        0x0 build/default/debug/_ext/1688732426/system_tasks.o
 .bss           0x00000000        0x0 build/default/debug/_ext/1688732426/system_tasks.o
 .reginfo       0x00000000       0x18 build/default/debug/_ext/1688732426/system_tasks.o
 .text          0x00000000        0x0 build/default/debug/_ext/1360937237/app.o
 .data          0x00000000        0x0 build/default/debug/_ext/1360937237/app.o
 .bss           0x00000000        0x0 build/default/debug/_ext/1360937237/app.o
 .reginfo       0x00000000       0x18 build/default/debug/_ext/1360937237/app.o
 .text          0x00000000        0x0 build/default/debug/_ext/1360937237/main.o
 .data          0x00000000        0x0 build/default/debug/_ext/1360937237/main.o
 .bss           0x00000000        0x0 build/default/debug/_ext/1360937237/main.o
 .reginfo       0x00000000       0x18 build/default/debug/_ext/1360937237/main.o
 .text          0x00000000        0x0 build/default/debug/_ext/1360937237/switches.o
 .data          0x00000000        0x0 build/default/debug/_ext/1360937237/switches.o
 .bss           0x00000000        0x0 build/default/debug/_ext/1360937237/switches.o
 .reginfo       0x00000000       0x18 build/default/debug/_ext/1360937237/switches.o
 .text          0x00000000        0x0 build/default/debug/_ext/1360937237/timers.o
 .data          0x00000000        0x0 build/default/debug/_ext/1360937237/timers.o
 .bss           0x00000000        0x0 build/default/debug/_ext/1360937237/timers.o
 .reginfo       0x00000000       0x18 build/default/debug/_ext/1360937237/timers.o
 .text          0x00000000        0x0 build/default/debug/_ext/1360937237/crc.o
 .data          0x00000000        0x0 build/default/debug/_ext/1360937237/crc.o
 .bss           0x00000000        0x0 build/default/debug/_ext/1360937237/crc.o
 .reginfo       0x00000000       0x18 build/default/debug/_ext/1360937237/crc.o
 .text.Calc_CRC
                0x00000000       0x48 build/default/debug/_ext/1360937237/crc.o
 .text.Calc_CRC_Array
                0x00000000       0x60 build/default/debug/_ext/1360937237/crc.o
 .text.Calc_CRC_Uplink
                0x00000000       0x68 build/default/debug/_ext/1360937237/crc.o
 .text.Reset_CRC_Value
                0x00000000        0xc build/default/debug/_ext/1360937237/crc.o
 .text.Get_CRC_Value
                0x00000000        0x8 build/default/debug/_ext/1360937237/crc.o
 .text          0x00000000        0x0 build/default/debug/_ext/1360937237/commands.o
 .data          0x00000000        0x0 build/default/debug/_ext/1360937237/commands.o
 .bss           0x00000000        0x0 build/default/debug/_ext/1360937237/commands.o
 .reginfo       0x00000000       0x18 build/default/debug/_ext/1360937237/commands.o
 .text          0x00000000        0x0 build/default/debug/_ext/1360937237/statusst.o
 .data          0x00000000        0x0 build/default/debug/_ext/1360937237/statusst.o
 .bss           0x00000000        0x0 build/default/debug/_ext/1360937237/statusst.o
 .reginfo       0x00000000       0x18 build/default/debug/_ext/1360937237/statusst.o
 .text          0x00000000        0x0 build/default/debug/_ext/1360937237/fifo.o
 .data          0x00000000        0x0 build/default/debug/_ext/1360937237/fifo.o
 .reginfo       0x00000000       0x18 build/default/debug/_ext/1360937237/fifo.o
 .text          0x00000000        0x0 build/default/debug/_ext/1360937237/commmodule.o
 .data          0x00000000        0x0 build/default/debug/_ext/1360937237/commmodule.o
 .bss           0x00000000        0x0 build/default/debug/_ext/1360937237/commmodule.o
 .reginfo       0x00000000       0x18 build/default/debug/_ext/1360937237/commmodule.o
 .text          0x00000000        0x0 build/default/debug/_ext/1360937237/document.o
 .data          0x00000000        0x0 build/default/debug/_ext/1360937237/document.o
 .bss           0x00000000        0x0 build/default/debug/_ext/1360937237/document.o
 .reginfo       0x00000000       0x18 build/default/debug/_ext/1360937237/document.o
 .text          0x00000000        0x0 build/default/debug/_ext/1360937237/system_okay.o
 .data          0x00000000        0x0 build/default/debug/_ext/1360937237/system_okay.o
 .bss           0x00000000        0x0 build/default/debug/_ext/1360937237/system_okay.o
 .reginfo       0x00000000       0x18 build/default/debug/_ext/1360937237/system_okay.o
 .text          0x00000000        0x0 build/default/debug/_ext/1360937237/test.o
 .data          0x00000000        0x0 build/default/debug/_ext/1360937237/test.o
 .bss           0x00000000        0x0 build/default/debug/_ext/1360937237/test.o
 .reginfo       0x00000000       0x18 build/default/debug/_ext/1360937237/test.o
 .text          0x00000000        0x0 build/default/debug/_ext/1360937237/gpt.o
 .data          0x00000000        0x0 build/default/debug/_ext/1360937237/gpt.o
 .reginfo       0x00000000       0x18 build/default/debug/_ext/1360937237/gpt.o
 .text.GPT_Tasks
                0x00000000        0x8 build/default/debug/_ext/1360937237/gpt.o
 .text          0x00000000        0x0 build/default/debug/_ext/1360937237/high_side.o
 .data          0x00000000        0x0 build/default/debug/_ext/1360937237/high_side.o
 .bss           0x00000000        0x0 build/default/debug/_ext/1360937237/high_side.o
 .reginfo       0x00000000       0x18 build/default/debug/_ext/1360937237/high_side.o
 .text          0x00000000        0x0 build/default/debug/_ext/1360937237/gamma.o
 .data          0x00000000        0x0 build/default/debug/_ext/1360937237/gamma.o
 .bss           0x00000000        0x0 build/default/debug/_ext/1360937237/gamma.o
 .reginfo       0x00000000       0x18 build/default/debug/_ext/1360937237/gamma.o
 .text          0x00000000        0x0 build/default/debug/_ext/1360937237/nvm_disk_images.o
 .data          0x00000000        0x0 build/default/debug/_ext/1360937237/nvm_disk_images.o
 .bss           0x00000000        0x0 build/default/debug/_ext/1360937237/nvm_disk_images.o
 .reginfo       0x00000000       0x18 build/default/debug/_ext/1360937237/nvm_disk_images.o
 .text          0x00000000        0x0 build/default/debug/_ext/1360937237/nvm_fs.o
 .data          0x00000000        0x0 build/default/debug/_ext/1360937237/nvm_fs.o
 .bss           0x00000000        0x0 build/default/debug/_ext/1360937237/nvm_fs.o
 .reginfo       0x00000000       0x18 build/default/debug/_ext/1360937237/nvm_fs.o
 .text          0x00000000        0x0 build/default/debug/_ext/1360937237/hid.o
 .data          0x00000000        0x0 build/default/debug/_ext/1360937237/hid.o
 .bss           0x00000000        0x0 build/default/debug/_ext/1360937237/hid.o
 .reginfo       0x00000000       0x18 build/default/debug/_ext/1360937237/hid.o
 .text          0x00000000        0x0 build/default/debug/_ext/1360937237/report.o
 .data          0x00000000        0x0 build/default/debug/_ext/1360937237/report.o
 .bss           0x00000000        0x0 build/default/debug/_ext/1360937237/report.o
 .reginfo       0x00000000       0x18 build/default/debug/_ext/1360937237/report.o
 .data          0x00000000        0x0 build/default/debug/_ext/2062801281/CLASSB_CPURegistersTest.o
 .bss           0x00000000        0x0 build/default/debug/_ext/2062801281/CLASSB_CPURegistersTest.o
 .reginfo       0x00000000       0x18 build/default/debug/_ext/2062801281/CLASSB_CPURegistersTest.o
 .text          0x00000000        0x0 build/default/debug/_ext/2062801281/CLASSB_CPUPCTest.o
 .data          0x00000000        0x0 build/default/debug/_ext/2062801281/CLASSB_CPUPCTest.o
 .bss           0x00000000        0x0 build/default/debug/_ext/2062801281/CLASSB_CPUPCTest.o
 .reginfo       0x00000000       0x18 build/default/debug/_ext/2062801281/CLASSB_CPUPCTest.o
 .text.CLASSB_PCTrap1.CLASSB_PCTrap1
                0x00000000        0x8 build/default/debug/_ext/2062801281/CLASSB_CPUPCTest.o
 .text.CLASSB_PCTrap2.CLASSB_PCTrap2
                0x00000000        0x8 build/default/debug/_ext/2062801281/CLASSB_CPUPCTest.o
 .text.CLASSB_PCTrap3.CLASSB_PCTrap3
                0x00000000        0x8 build/default/debug/_ext/2062801281/CLASSB_CPUPCTest.o
 .text          0x00000000        0x0 build/default/debug/_ext/2062801281/CLASSB_CRCbyte.o
 .data          0x00000000        0x0 build/default/debug/_ext/2062801281/CLASSB_CRCbyte.o
 .bss           0x00000000        0x0 build/default/debug/_ext/2062801281/CLASSB_CRCbyte.o
 .reginfo       0x00000000       0x18 build/default/debug/_ext/2062801281/CLASSB_CRCbyte.o
 .text          0x00000000        0x0 build/default/debug/_ext/2062801281/CLASSB_CRCFlashTest.o
 .data          0x00000000        0x0 build/default/debug/_ext/2062801281/CLASSB_CRCFlashTest.o
 .bss           0x00000000        0x0 build/default/debug/_ext/2062801281/CLASSB_CRCFlashTest.o
 .reginfo       0x00000000       0x18 build/default/debug/_ext/2062801281/CLASSB_CRCFlashTest.o
 .text          0x00000000        0x0 build/default/debug/_ext/2062801281/CLASSB_RAMCheckerBoardTest.o
 .data          0x00000000        0x0 build/default/debug/_ext/2062801281/CLASSB_RAMCheckerBoardTest.o
 .bss           0x00000000        0x0 build/default/debug/_ext/2062801281/CLASSB_RAMCheckerBoardTest.o
 .reginfo       0x00000000       0x18 build/default/debug/_ext/2062801281/CLASSB_RAMCheckerBoardTest.o
 .text          0x00000000        0x0 build/default/debug/_ext/2062801281/CLASSB_RAMMarchBTest.o
 .data          0x00000000        0x0 build/default/debug/_ext/2062801281/CLASSB_RAMMarchBTest.o
 .bss           0x00000000        0x0 build/default/debug/_ext/2062801281/CLASSB_RAMMarchBTest.o
 .reginfo       0x00000000       0x18 build/default/debug/_ext/2062801281/CLASSB_RAMMarchBTest.o
 .text          0x00000000        0x0 build/default/debug/_ext/2062801281/CLASSB_RAMMarchCStackTest.o
 .data          0x00000000        0x0 build/default/debug/_ext/2062801281/CLASSB_RAMMarchCStackTest.o
 .bss           0x00000000        0x0 build/default/debug/_ext/2062801281/CLASSB_RAMMarchCStackTest.o
 .reginfo       0x00000000       0x18 build/default/debug/_ext/2062801281/CLASSB_RAMMarchCStackTest.o
 .text          0x00000000        0x0 build/default/debug/_ext/2062801281/CLASSB_RAMMarchCTest.o
 .data          0x00000000        0x0 build/default/debug/_ext/2062801281/CLASSB_RAMMarchCTest.o
 .bss           0x00000000        0x0 build/default/debug/_ext/2062801281/CLASSB_RAMMarchCTest.o
 .reginfo       0x00000000       0x18 build/default/debug/_ext/2062801281/CLASSB_RAMMarchCTest.o
 .text          0x00000000        0x0 build/default/debug/_ext/274850301/drv_nvm.o
 .data          0x00000000        0x0 build/default/debug/_ext/274850301/drv_nvm.o
 .bss           0x00000000        0x0 build/default/debug/_ext/274850301/drv_nvm.o
 .reginfo       0x00000000       0x18 build/default/debug/_ext/274850301/drv_nvm.o
 .text.DRV_NVM_Deinitialize
                0x00000000       0x4c build/default/debug/_ext/274850301/drv_nvm.o
 .text.DRV_NVM_Status
                0x00000000       0x18 build/default/debug/_ext/274850301/drv_nvm.o
 .text.DRV_NVM_Write
                0x00000000       0x78 build/default/debug/_ext/274850301/drv_nvm.o
 .text.DRV_NVM_IsWriteProtected
                0x00000000        0x8 build/default/debug/_ext/274850301/drv_nvm.o
 .text          0x00000000        0x0 build/default/debug/_ext/274850301/drv_nvm_erasewrite.o
 .data          0x00000000        0x0 build/default/debug/_ext/274850301/drv_nvm_erasewrite.o
 .bss           0x00000000        0x0 build/default/debug/_ext/274850301/drv_nvm_erasewrite.o
 .reginfo       0x00000000       0x18 build/default/debug/_ext/274850301/drv_nvm_erasewrite.o
 .text          0x00000000        0x0 build/default/debug/_ext/1415029366/drv_spi.o
 .reginfo       0x00000000       0x18 build/default/debug/_ext/1415029366/drv_spi.o
 .text.DRV_SPI_Deinitialize
                0x00000000       0x8c build/default/debug/_ext/1415029366/drv_spi.o
 .text.DRV_SPI_Status
                0x00000000        0x8 build/default/debug/_ext/1415029366/drv_spi.o
 .text.DRV_SPI_Close
                0x00000000      0x1f0 build/default/debug/_ext/1415029366/drv_spi.o
 .text.DRV_SPI_BufferAddRead2
                0x00000000      0x198 build/default/debug/_ext/1415029366/drv_spi.o
 .text.DRV_SPI_BufferAddWriteRead2
                0x00000000      0x1d8 build/default/debug/_ext/1415029366/drv_spi.o
 .text.DRV_SPI_BufferAddRead
                0x00000000       0x24 build/default/debug/_ext/1415029366/drv_spi.o
 .text.DRV_SPI_BufferAddWrite
                0x00000000       0x24 build/default/debug/_ext/1415029366/drv_spi.o
 .text.DRV_SPI_BufferAddWriteRead
                0x00000000       0x34 build/default/debug/_ext/1415029366/drv_spi.o
 .text.DRV_SPI_BufferStatus
                0x00000000        0x8 build/default/debug/_ext/1415029366/drv_spi.o
 .text.DRV_SPI_ClientConfigure
                0x00000000       0x74 build/default/debug/_ext/1415029366/drv_spi.o
 .text          0x00000000        0x0 build/default/debug/_ext/1745438118/drv_spi_sys_queue_fifo.o
 .data          0x00000000        0x0 build/default/debug/_ext/1745438118/drv_spi_sys_queue_fifo.o
 .bss           0x00000000        0x0 build/default/debug/_ext/1745438118/drv_spi_sys_queue_fifo.o
 .reginfo       0x00000000       0x18 build/default/debug/_ext/1745438118/drv_spi_sys_queue_fifo.o
 .text.DRV_SPI_SYS_QUEUE_DestroyQueue
                0x00000000       0xb4 build/default/debug/_ext/1745438118/drv_spi_sys_queue_fifo.o
 .text.DRV_SPI_SYS_QUEUE_Peek
                0x00000000       0x54 build/default/debug/_ext/1745438118/drv_spi_sys_queue_fifo.o
 .text.DRV_SPI_SYS_QUEUE_IsEmpty
                0x00000000        0xc build/default/debug/_ext/1745438118/drv_spi_sys_queue_fifo.o
 .text.DRV_SPI_SYS_QUEUE_Lock
                0x00000000       0x1c build/default/debug/_ext/1745438118/drv_spi_sys_queue_fifo.o
 .text.DRV_SPI_SYS_QUEUE_Unlock
                0x00000000       0x1c build/default/debug/_ext/1745438118/drv_spi_sys_queue_fifo.o
 .text.DRV_SPI_SYS_QUEUE_CreateQueueLock
                0x00000000       0x1c build/default/debug/_ext/1745438118/drv_spi_sys_queue_fifo.o
 .text.DRV_SPI_SYS_QUEUE_DestroyQueueLock
                0x00000000       0x58 build/default/debug/_ext/1745438118/drv_spi_sys_queue_fifo.o
 .text.DRV_SPI_SYS_QUEUE_QueueManagerStatus
                0x00000000        0x8 build/default/debug/_ext/1745438118/drv_spi_sys_queue_fifo.o
 .text.DRV_SPI_SYS_QUEUE_QueueStatus
                0x00000000        0x8 build/default/debug/_ext/1745438118/drv_spi_sys_queue_fifo.o
 .text._DRV_SPI_SYS_QUEUE_LockQueueManager
                0x00000000        0x8 build/default/debug/_ext/1745438118/drv_spi_sys_queue_fifo.o
 .text._DRV_SPI_SYS_QUEUE_UnlockQueueManager
                0x00000000        0x8 build/default/debug/_ext/1745438118/drv_spi_sys_queue_fifo.o
 .text          0x00000000        0x0 build/default/debug/_ext/1329795486/drv_usbhs.o
 .data          0x00000000        0x0 build/default/debug/_ext/1329795486/drv_usbhs.o
 .bss           0x00000000        0x0 build/default/debug/_ext/1329795486/drv_usbhs.o
 .reginfo       0x00000000       0x18 build/default/debug/_ext/1329795486/drv_usbhs.o
 .text.DRV_USBHS_Deinitialize
                0x00000000       0x98 build/default/debug/_ext/1329795486/drv_usbhs.o
 .text.DRV_USBHS_Status
                0x00000000       0x38 build/default/debug/_ext/1329795486/drv_usbhs.o
 .text          0x00000000        0x0 build/default/debug/_ext/1329795486/drv_usbhs_device.o
 .bss           0x00000000        0x0 build/default/debug/_ext/1329795486/drv_usbhs_device.o
 .reginfo       0x00000000       0x18 build/default/debug/_ext/1329795486/drv_usbhs_device.o
 .text._DRV_USBHS_DEVICE_EndpointObjectEnable
                0x00000000       0x1c build/default/debug/_ext/1329795486/drv_usbhs_device.o
 .text.DRV_USBHS_DEVICE_IRPCancel
                0x00000000      0x1dc build/default/debug/_ext/1329795486/drv_usbhs_device.o
 .text.DRV_USBHS_DEVICE_TestModeExit
                0x00000000       0x94 build/default/debug/_ext/1329795486/drv_usbhs_device.o
 .text          0x00000000        0x0 build/default/debug/_ext/746721678/sys_fs.o
 .data          0x00000000        0x0 build/default/debug/_ext/746721678/sys_fs.o
 .bss           0x00000000        0x0 build/default/debug/_ext/746721678/sys_fs.o
 .reginfo       0x00000000       0x18 build/default/debug/_ext/746721678/sys_fs.o
 .text.SYS_FS_FileNameGet
                0x00000000       0x90 build/default/debug/_ext/746721678/sys_fs.o
 .text.SYS_FS_Error
                0x00000000        0x8 build/default/debug/_ext/746721678/sys_fs.o
 .text.SYS_FS_FileError
                0x00000000       0x20 build/default/debug/_ext/746721678/sys_fs.o
 .text.SYS_FS_FileTruncate
                0x00000000       0xb8 build/default/debug/_ext/746721678/sys_fs.o
 .text.SYS_FS_FileStringGet
                0x00000000       0xe0 build/default/debug/_ext/746721678/sys_fs.o
 .text.SYS_FS_FileCharacterPut
                0x00000000       0xd4 build/default/debug/_ext/746721678/sys_fs.o
 .text.SYS_FS_FileStringPut
                0x00000000       0xd8 build/default/debug/_ext/746721678/sys_fs.o
 .text.SYS_FS_FilePrintf
                0x00000000       0xe8 build/default/debug/_ext/746721678/sys_fs.o
 .text.SYS_FS_FileTestError
                0x00000000       0xb0 build/default/debug/_ext/746721678/sys_fs.o
 .text.SYS_FS_DirectoryMake
                0x00000000       0xcc build/default/debug/_ext/746721678/sys_fs.o
 .text.SYS_FS_DirectoryChange
                0x00000000       0xcc build/default/debug/_ext/746721678/sys_fs.o
 .text.SYS_FS_FileDirectoryRemove
                0x00000000       0xcc build/default/debug/_ext/746721678/sys_fs.o
 .text.SYS_FS_DirOpen
                0x00000000      0x140 build/default/debug/_ext/746721678/sys_fs.o
 .text.SYS_FS_DirClose
                0x00000000       0xc8 build/default/debug/_ext/746721678/sys_fs.o
 .text.SYS_FS_DirRead
                0x00000000       0xc8 build/default/debug/_ext/746721678/sys_fs.o
 .text.SYS_FS_DirRewind
                0x00000000       0xc8 build/default/debug/_ext/746721678/sys_fs.o
 .text.SYS_FS_DirSearch
                0x00000000      0x244 build/default/debug/_ext/746721678/sys_fs.o
 .text.SYS_FS_CurrentWorkingDirectoryGet
                0x00000000      0x1b8 build/default/debug/_ext/746721678/sys_fs.o
 .text.SYS_FS_FileDirectoryModeSet
                0x00000000       0xec build/default/debug/_ext/746721678/sys_fs.o
 .text.SYS_FS_FileDirectoryTimeSet
                0x00000000       0xf0 build/default/debug/_ext/746721678/sys_fs.o
 .text.SYS_FS_FileDirectoryRenameMove
                0x00000000      0x108 build/default/debug/_ext/746721678/sys_fs.o
 .text.SYS_FS_CurrentDriveGet
                0x00000000       0x7c build/default/debug/_ext/746721678/sys_fs.o
 .text.SYS_FS_CurrentDriveSet
                0x00000000       0xe4 build/default/debug/_ext/746721678/sys_fs.o
 .text.SYS_FS_DriveLabelGet
                0x00000000      0x100 build/default/debug/_ext/746721678/sys_fs.o
 .text.SYS_FS_DriveLabelSet
                0x00000000      0x114 build/default/debug/_ext/746721678/sys_fs.o
 .text.SYS_FS_DriveFormat
                0x00000000       0xbc build/default/debug/_ext/746721678/sys_fs.o
 .text.SYS_FS_DrivePartition
                0x00000000       0xc0 build/default/debug/_ext/746721678/sys_fs.o
 .text.SYS_FS_DriveSectorGet
                0x00000000      0x108 build/default/debug/_ext/746721678/sys_fs.o
 .text          0x00000000        0x0 build/default/debug/_ext/746721678/sys_fs_media_manager.o
 .bss           0x00000000        0x0 build/default/debug/_ext/746721678/sys_fs_media_manager.o
 .reginfo       0x00000000       0x18 build/default/debug/_ext/746721678/sys_fs_media_manager.o
 .text.SYS_FS_MEDIA_MANAGER_DeRegister
                0x00000000       0x18 build/default/debug/_ext/746721678/sys_fs_media_manager.o
 .text.SYS_FS_MEDIA_MANAGER_Read
                0x00000000       0x9c build/default/debug/_ext/746721678/sys_fs_media_manager.o
 .text.SYS_FS_MEDIA_MANAGER_AddressGet
                0x00000000       0x38 build/default/debug/_ext/746721678/sys_fs_media_manager.o
 .text.SYS_FS_MEDIA_MANAGER_CommandStatusGet
                0x00000000       0x54 build/default/debug/_ext/746721678/sys_fs_media_manager.o
 .text          0x00000000        0x0 build/default/debug/_ext/408548909/ff.o
 .data          0x00000000        0x0 build/default/debug/_ext/408548909/ff.o
 .reginfo       0x00000000       0x18 build/default/debug/_ext/408548909/ff.o
 .text          0x00000000        0x0 build/default/debug/_ext/1290481162/diskio.o
 .data          0x00000000        0x0 build/default/debug/_ext/1290481162/diskio.o
 .bss           0x00000000        0x0 build/default/debug/_ext/1290481162/diskio.o
 .reginfo       0x00000000       0x18 build/default/debug/_ext/1290481162/diskio.o
 .text          0x00000000        0x0 build/default/debug/_ext/2087805404/sys_int_pic32.o
 .data          0x00000000        0x0 build/default/debug/_ext/2087805404/sys_int_pic32.o
 .bss           0x00000000        0x0 build/default/debug/_ext/2087805404/sys_int_pic32.o
 .reginfo       0x00000000       0x18 build/default/debug/_ext/2087805404/sys_int_pic32.o
 .text.SYS_INT_ExternalInterruptTriggerSet
                0x00000000       0x28 build/default/debug/_ext/2087805404/sys_int_pic32.o
 .text          0x00000000        0x0 build/default/debug/_ext/945675698/sys_tmr.o
 .data          0x00000000        0x0 build/default/debug/_ext/945675698/sys_tmr.o
 .reginfo       0x00000000       0x18 build/default/debug/_ext/945675698/sys_tmr.o
 .text._SYS_TMR_ClientParamSet
                0x00000000       0xe8 build/default/debug/_ext/945675698/sys_tmr.o
 .text._SYS_TMR_ClientCheckSrvLock
                0x00000000       0xb0 build/default/debug/_ext/945675698/sys_tmr.o
 .text._SYS_TMR_ClientCreate
                0x00000000      0x18c build/default/debug/_ext/945675698/sys_tmr.o
 .text.SYS_TMR_Deinitialize
                0x00000000       0xd0 build/default/debug/_ext/945675698/sys_tmr.o
 .text.SYS_TMR_Status
                0x00000000       0x20 build/default/debug/_ext/945675698/sys_tmr.o
 .text.SYS_TMR_ModuleStatusGet
                0x00000000       0x18 build/default/debug/_ext/945675698/sys_tmr.o
 .text.SYS_TMR_ObjectCreate
                0x00000000       0x1c build/default/debug/_ext/945675698/sys_tmr.o
 .text.SYS_TMR_ObjectDelete
                0x00000000       0x50 build/default/debug/_ext/945675698/sys_tmr.o
 .text.SYS_TMR_CallbackStop
                0x00000000       0x1c build/default/debug/_ext/945675698/sys_tmr.o
 .text.SYS_TMR_ObjectReload
                0x00000000       0xb4 build/default/debug/_ext/945675698/sys_tmr.o
 .text.SYS_TMR_ObjectCountGet
                0x00000000       0xe4 build/default/debug/_ext/945675698/sys_tmr.o
 .text.SYS_TMR_CallbackPeriodic
                0x00000000       0x1c build/default/debug/_ext/945675698/sys_tmr.o
 .text.SYS_TMR_CallbackSingle
                0x00000000       0x1c build/default/debug/_ext/945675698/sys_tmr.o
 .text.SYS_TMR_DelayMS
                0x00000000       0x24 build/default/debug/_ext/945675698/sys_tmr.o
 .text.SYS_TMR_DelayStatusGet
                0x00000000       0x20 build/default/debug/_ext/945675698/sys_tmr.o
 .text.SYS_TMR_TickCountGet
                0x00000000       0x28 build/default/debug/_ext/945675698/sys_tmr.o
 .text.SYS_TMR_TickCountGetLong
                0x00000000       0x4c build/default/debug/_ext/945675698/sys_tmr.o
 .text.SYS_TMR_TickCounterFrequencyGet
                0x00000000       0x24 build/default/debug/_ext/945675698/sys_tmr.o
 .text.SYS_TMR_SystemCountFrequencyGet
                0x00000000       0x24 build/default/debug/_ext/945675698/sys_tmr.o
 .text.SYS_TMR_SystemCountGet
                0x00000000       0xec build/default/debug/_ext/945675698/sys_tmr.o
 .text          0x00000000        0x0 build/default/debug/_ext/419360567/usb_device.o
 .data          0x00000000        0x0 build/default/debug/_ext/419360567/usb_device.o
 .reginfo       0x00000000       0x18 build/default/debug/_ext/419360567/usb_device.o
 .text.USB_DEVICE_Status
                0x00000000       0x44 build/default/debug/_ext/419360567/usb_device.o
 .text.USB_DEVICE_Deinitialize
                0x00000000       0x40 build/default/debug/_ext/419360567/usb_device.o
 .text.USB_DEVICE_EndpointIsEnabled
                0x00000000       0x48 build/default/debug/_ext/419360567/usb_device.o
 .text.USB_DEVICE_EndpointStall
                0x00000000       0x40 build/default/debug/_ext/419360567/usb_device.o
 .text.USB_DEVICE_EndpointStallClear
                0x00000000       0x40 build/default/debug/_ext/419360567/usb_device.o
 .text.USB_DEVICE_EndpointIsStalled
                0x00000000       0x48 build/default/debug/_ext/419360567/usb_device.o
 .text.USB_DEVICE_IsSuspended
                0x00000000       0x2c build/default/debug/_ext/419360567/usb_device.o
 .text.USB_DEVICE_StateGet
                0x00000000       0x2c build/default/debug/_ext/419360567/usb_device.o
 .text.USB_DEVICE_Close
                0x00000000       0x2c build/default/debug/_ext/419360567/usb_device.o
 .text.USB_DEVICE_ClientStatusGet
                0x00000000       0x28 build/default/debug/_ext/419360567/usb_device.o
 .text.USB_DEVICE_ActiveConfigurationGet
                0x00000000       0x28 build/default/debug/_ext/419360567/usb_device.o
 .text.USB_DEVICE_ActiveSpeedGet
                0x00000000       0x2c build/default/debug/_ext/419360567/usb_device.o
 .text.USB_DEVICE_ControlReceive
                0x00000000       0x48 build/default/debug/_ext/419360567/usb_device.o
 .text.USB_DEVICE_PowerStateSet
                0x00000000       0x38 build/default/debug/_ext/419360567/usb_device.o
 .text.USB_DEVICE_RemoteWakeupStatusGet
                0x00000000       0x28 build/default/debug/_ext/419360567/usb_device.o
 .text.USB_DEVICE_RemoteWakeupStop
                0x00000000       0x34 build/default/debug/_ext/419360567/usb_device.o
 .text.USB_DEVICE_RemoteWakeupStart
                0x00000000       0x34 build/default/debug/_ext/419360567/usb_device.o
 .text.USB_DEVICE_IRPCancel
                0x00000000       0x48 build/default/debug/_ext/419360567/usb_device.o
 .text._USB_DEVICE_EndpointMutexCreateFunction
                0x00000000       0x1c build/default/debug/_ext/419360567/usb_device.o
 .text._USB_DEVICE_EndpointMutexDeleteFunction
                0x00000000        0x8 build/default/debug/_ext/419360567/usb_device.o
 .text._USB_DEVICE_GetStringDescriptorRequestProcessAdvanced
                0x00000000       0xa8 build/default/debug/_ext/419360567/usb_device.o
 .text          0x00000000        0x0 build/default/debug/_ext/419360567/usb_device_hid.o
 .data          0x00000000        0x0 build/default/debug/_ext/419360567/usb_device_hid.o
 .bss           0x00000000        0x0 build/default/debug/_ext/419360567/usb_device_hid.o
 .reginfo       0x00000000       0x18 build/default/debug/_ext/419360567/usb_device_hid.o
 .text.USB_DEVICE_HID_TransferCancel
                0x00000000       0x64 build/default/debug/_ext/419360567/usb_device_hid.o
 .text          0x00000000        0x0 C:\Users\DAVID~1.DOB\AppData\Local\Temp\cchLGtk6.o
 .data          0x00000000        0x0 C:\Users\DAVID~1.DOB\AppData\Local\Temp\cchLGtk6.o
 .bss           0x00000000        0x0 C:\Users\DAVID~1.DOB\AppData\Local\Temp\cchLGtk6.o
 .reginfo       0x00000000       0x18 C:\Users\DAVID~1.DOB\AppData\Local\Temp\cchLGtk6.o
 .text          0x00000000        0x0 C:\Users\DAVID~1.DOB\AppData\Local\Temp\cc61u7Kr.o
 .data          0x00000000        0x0 C:\Users\DAVID~1.DOB\AppData\Local\Temp\cc61u7Kr.o
 .bss           0x00000000        0x0 C:\Users\DAVID~1.DOB\AppData\Local\Temp\cc61u7Kr.o
 .reginfo       0x00000000       0x18 C:\Users\DAVID~1.DOB\AppData\Local\Temp\cc61u7Kr.o
 .text          0x00000000        0x0 C:\Users\DAVID~1.DOB\AppData\Local\Temp\cc32eKz8.o
 .data          0x00000000        0x0 C:\Users\DAVID~1.DOB\AppData\Local\Temp\cc32eKz8.o
 .bss           0x00000000        0x0 C:\Users\DAVID~1.DOB\AppData\Local\Temp\cc32eKz8.o
 .reginfo       0x00000000       0x18 C:\Users\DAVID~1.DOB\AppData\Local\Temp\cc32eKz8.o
 .discard       0x00000000        0x4 C:\Users\DAVID~1.DOB\AppData\Local\Temp\cc32eKz8.o
 .data          0x00000000        0x0 c:/program files/microchip/xc32/v2.50/bin/bin/../../lib/gcc/pic32mx/4.8.3/../../../../pic32mx/lib/fpu64\pic32_software_reset.o
 .bss           0x00000000        0x0 c:/program files/microchip/xc32/v2.50/bin/bin/../../lib/gcc/pic32mx/4.8.3/../../../../pic32mx/lib/fpu64\pic32_software_reset.o
 .reginfo       0x00000000       0x18 c:/program files/microchip/xc32/v2.50/bin/bin/../../lib/gcc/pic32mx/4.8.3/../../../../pic32mx/lib/fpu64\pic32_software_reset.o
 .text          0x00000000        0x0 c:/program files/microchip/xc32/v2.50/bin/bin/../../lib/gcc/pic32mx/4.8.3/../../../../pic32mx/lib/./proc/32MZ2048EFH144\vector_offset_init.o
 .data          0x00000000        0x0 c:/program files/microchip/xc32/v2.50/bin/bin/../../lib/gcc/pic32mx/4.8.3/../../../../pic32mx/lib/./proc/32MZ2048EFH144\vector_offset_init.o
 .bss           0x00000000        0x0 c:/program files/microchip/xc32/v2.50/bin/bin/../../lib/gcc/pic32mx/4.8.3/../../../../pic32mx/lib/./proc/32MZ2048EFH144\vector_offset_init.o
 .reginfo       0x00000000       0x18 c:/program files/microchip/xc32/v2.50/bin/bin/../../lib/gcc/pic32mx/4.8.3/../../../../pic32mx/lib/./proc/32MZ2048EFH144\vector_offset_init.o
 .text          0x00000000      0x458 c:/program files/microchip/xc32/v2.50/bin/bin/../../lib/gcc/pic32mx/4.8.3/fpu64\libgcc.a(_udivdi3.o)
 .data          0x00000000        0x0 c:/program files/microchip/xc32/v2.50/bin/bin/../../lib/gcc/pic32mx/4.8.3/fpu64\libgcc.a(_udivdi3.o)
 .bss           0x00000000        0x0 c:/program files/microchip/xc32/v2.50/bin/bin/../../lib/gcc/pic32mx/4.8.3/fpu64\libgcc.a(_udivdi3.o)
 .reginfo       0x00000000       0x18 c:/program files/microchip/xc32/v2.50/bin/bin/../../lib/gcc/pic32mx/4.8.3/fpu64\libgcc.a(_udivdi3.o)
 .data          0x00000000        0x0 c:/program files/microchip/xc32/v2.50/bin/bin/../../lib/gcc/pic32mx/4.8.3/../../../../pic32mx/lib/fpu64\libpic32.a(memcmp.o)
 .bss           0x00000000        0x0 c:/program files/microchip/xc32/v2.50/bin/bin/../../lib/gcc/pic32mx/4.8.3/../../../../pic32mx/lib/fpu64\libpic32.a(memcmp.o)
 .reginfo       0x00000000       0x18 c:/program files/microchip/xc32/v2.50/bin/bin/../../lib/gcc/pic32mx/4.8.3/../../../../pic32mx/lib/fpu64\libpic32.a(memcmp.o)
 .data          0x00000000        0x0 c:/program files/microchip/xc32/v2.50/bin/bin/../../lib/gcc/pic32mx/4.8.3/../../../../pic32mx/lib/fpu64\libpic32.a(memcpy.o)
 .bss           0x00000000        0x0 c:/program files/microchip/xc32/v2.50/bin/bin/../../lib/gcc/pic32mx/4.8.3/../../../../pic32mx/lib/fpu64\libpic32.a(memcpy.o)
 .reginfo       0x00000000       0x18 c:/program files/microchip/xc32/v2.50/bin/bin/../../lib/gcc/pic32mx/4.8.3/../../../../pic32mx/lib/fpu64\libpic32.a(memcpy.o)
 .data          0x00000000        0x0 c:/program files/microchip/xc32/v2.50/bin/bin/../../lib/gcc/pic32mx/4.8.3/../../../../pic32mx/lib/fpu64\libpic32.a(memset.o)
 .bss           0x00000000        0x0 c:/program files/microchip/xc32/v2.50/bin/bin/../../lib/gcc/pic32mx/4.8.3/../../../../pic32mx/lib/fpu64\libpic32.a(memset.o)
 .reginfo       0x00000000       0x18 c:/program files/microchip/xc32/v2.50/bin/bin/../../lib/gcc/pic32mx/4.8.3/../../../../pic32mx/lib/fpu64\libpic32.a(memset.o)
 .data          0x00000000        0x0 c:/program files/microchip/xc32/v2.50/bin/bin/../../lib/gcc/pic32mx/4.8.3/../../../../pic32mx/lib/fpu64\libpic32.a(strcmp.o)
 .bss           0x00000000        0x0 c:/program files/microchip/xc32/v2.50/bin/bin/../../lib/gcc/pic32mx/4.8.3/../../../../pic32mx/lib/fpu64\libpic32.a(strcmp.o)
 .reginfo       0x00000000       0x18 c:/program files/microchip/xc32/v2.50/bin/bin/../../lib/gcc/pic32mx/4.8.3/../../../../pic32mx/lib/fpu64\libpic32.a(strcmp.o)
 .text          0x00000000      0x1a0 c:/program files/microchip/xc32/v2.50/bin/bin/../../lib/gcc/pic32mx/4.8.3/../../../../pic32mx/lib/fpu64\libpic32.a(strcpy.o)
 .data          0x00000000        0x0 c:/program files/microchip/xc32/v2.50/bin/bin/../../lib/gcc/pic32mx/4.8.3/../../../../pic32mx/lib/fpu64\libpic32.a(strcpy.o)
 .bss           0x00000000        0x0 c:/program files/microchip/xc32/v2.50/bin/bin/../../lib/gcc/pic32mx/4.8.3/../../../../pic32mx/lib/fpu64\libpic32.a(strcpy.o)
 .reginfo       0x00000000       0x18 c:/program files/microchip/xc32/v2.50/bin/bin/../../lib/gcc/pic32mx/4.8.3/../../../../pic32mx/lib/fpu64\libpic32.a(strcpy.o)
 .comment       0x00000000       0x1a c:/program files/microchip/xc32/v2.50/bin/bin/../../lib/gcc/pic32mx/4.8.3/../../../../pic32mx/lib/fpu64\libpic32.a(strcpy.o)
 .data          0x00000000        0x0 c:/program files/microchip/xc32/v2.50/bin/bin/../../lib/gcc/pic32mx/4.8.3/../../../../pic32mx/lib/fpu64\libpic32.a(strlen.o)
 .bss           0x00000000        0x0 c:/program files/microchip/xc32/v2.50/bin/bin/../../lib/gcc/pic32mx/4.8.3/../../../../pic32mx/lib/fpu64\libpic32.a(strlen.o)
 .reginfo       0x00000000       0x18 c:/program files/microchip/xc32/v2.50/bin/bin/../../lib/gcc/pic32mx/4.8.3/../../../../pic32mx/lib/fpu64\libpic32.a(strlen.o)
 .text          0x00000000        0x0 c:/program files/microchip/xc32/v2.50/bin/bin/../../lib/gcc/pic32mx/4.8.3/../../../../pic32mx/lib/fpu64\libpic32.a(default-bootstrap-exception-handler.o)
 .data          0x00000000        0x0 c:/program files/microchip/xc32/v2.50/bin/bin/../../lib/gcc/pic32mx/4.8.3/../../../../pic32mx/lib/fpu64\libpic32.a(default-bootstrap-exception-handler.o)
 .bss           0x00000000        0x0 c:/program files/microchip/xc32/v2.50/bin/bin/../../lib/gcc/pic32mx/4.8.3/../../../../pic32mx/lib/fpu64\libpic32.a(default-bootstrap-exception-handler.o)
 .reginfo       0x00000000       0x18 c:/program files/microchip/xc32/v2.50/bin/bin/../../lib/gcc/pic32mx/4.8.3/../../../../pic32mx/lib/fpu64\libpic32.a(default-bootstrap-exception-handler.o)
 .text          0x00000000        0x0 c:/program files/microchip/xc32/v2.50/bin/bin/../../lib/gcc/pic32mx/4.8.3/../../../../pic32mx/lib/fpu64\libpic32.a(default-on-reset.o)
 .data          0x00000000        0x0 c:/program files/microchip/xc32/v2.50/bin/bin/../../lib/gcc/pic32mx/4.8.3/../../../../pic32mx/lib/fpu64\libpic32.a(default-on-reset.o)
 .bss           0x00000000        0x0 c:/program files/microchip/xc32/v2.50/bin/bin/../../lib/gcc/pic32mx/4.8.3/../../../../pic32mx/lib/fpu64\libpic32.a(default-on-reset.o)
 .reginfo       0x00000000       0x18 c:/program files/microchip/xc32/v2.50/bin/bin/../../lib/gcc/pic32mx/4.8.3/../../../../pic32mx/lib/fpu64\libpic32.a(default-on-reset.o)
 .text          0x00000000        0x0 c:/program files/microchip/xc32/v2.50/bin/bin/../../lib/gcc/pic32mx/4.8.3/../../../../pic32mx/lib/fpu64\libpic32.a(default-on-bootstrap.o)
 .data          0x00000000        0x0 c:/program files/microchip/xc32/v2.50/bin/bin/../../lib/gcc/pic32mx/4.8.3/../../../../pic32mx/lib/fpu64\libpic32.a(default-on-bootstrap.o)
 .bss           0x00000000        0x0 c:/program files/microchip/xc32/v2.50/bin/bin/../../lib/gcc/pic32mx/4.8.3/../../../../pic32mx/lib/fpu64\libpic32.a(default-on-bootstrap.o)
 .reginfo       0x00000000       0x18 c:/program files/microchip/xc32/v2.50/bin/bin/../../lib/gcc/pic32mx/4.8.3/../../../../pic32mx/lib/fpu64\libpic32.a(default-on-bootstrap.o)
 .data          0x00000000        0x0 c:/program files/microchip/xc32/v2.50/bin/bin/../../lib/gcc/pic32mx/4.8.3/../../../../pic32mx/lib/fpu64\libpic32.a(default-nmi-handler.o)
 .bss           0x00000000        0x0 c:/program files/microchip/xc32/v2.50/bin/bin/../../lib/gcc/pic32mx/4.8.3/../../../../pic32mx/lib/fpu64\libpic32.a(default-nmi-handler.o)
 .reginfo       0x00000000       0x18 c:/program files/microchip/xc32/v2.50/bin/bin/../../lib/gcc/pic32mx/4.8.3/../../../../pic32mx/lib/fpu64\libpic32.a(default-nmi-handler.o)
 .data          0x00000000        0x0 c:/program files/microchip/xc32/v2.50/bin/bin/../../lib/gcc/pic32mx/4.8.3/../../../../pic32mx/lib/fpu64\libpic32.a(pic32_data_init.o)
 .bss           0x00000000        0x0 c:/program files/microchip/xc32/v2.50/bin/bin/../../lib/gcc/pic32mx/4.8.3/../../../../pic32mx/lib/fpu64\libpic32.a(pic32_data_init.o)
 .reginfo       0x00000000       0x18 c:/program files/microchip/xc32/v2.50/bin/bin/../../lib/gcc/pic32mx/4.8.3/../../../../pic32mx/lib/fpu64\libpic32.a(pic32_data_init.o)
 .text          0x00000000        0x0 c:/program files/microchip/xc32/v2.50/bin/bin/../../lib/gcc/pic32mx/4.8.3/../../../../pic32mx/lib/fpu64\libpic32.a(pic32_init_cache.o)
 .data          0x00000000        0x0 c:/program files/microchip/xc32/v2.50/bin/bin/../../lib/gcc/pic32mx/4.8.3/../../../../pic32mx/lib/fpu64\libpic32.a(pic32_init_cache.o)
 .bss           0x00000000        0x0 c:/program files/microchip/xc32/v2.50/bin/bin/../../lib/gcc/pic32mx/4.8.3/../../../../pic32mx/lib/fpu64\libpic32.a(pic32_init_cache.o)
 .reginfo       0x00000000       0x18 c:/program files/microchip/xc32/v2.50/bin/bin/../../lib/gcc/pic32mx/4.8.3/../../../../pic32mx/lib/fpu64\libpic32.a(pic32_init_cache.o)
 .cache_init.pic32_size_cache
                0x00000000       0x58 c:/program files/microchip/xc32/v2.50/bin/bin/../../lib/gcc/pic32mx/4.8.3/../../../../pic32mx/lib/fpu64\libpic32.a(pic32_init_cache.o)
 .text          0x00000000        0x0 c:/program files/microchip/xc32/v2.50/bin/bin/../../lib/gcc/pic32mx/4.8.3/../../../../pic32mx/lib/fpu64\libpic32.a(pic32_init_tlb_ebi_sqi.o)
 .data          0x00000000        0x0 c:/program files/microchip/xc32/v2.50/bin/bin/../../lib/gcc/pic32mx/4.8.3/../../../../pic32mx/lib/fpu64\libpic32.a(pic32_init_tlb_ebi_sqi.o)
 .bss           0x00000000        0x0 c:/program files/microchip/xc32/v2.50/bin/bin/../../lib/gcc/pic32mx/4.8.3/../../../../pic32mx/lib/fpu64\libpic32.a(pic32_init_tlb_ebi_sqi.o)
 .reginfo       0x00000000       0x18 c:/program files/microchip/xc32/v2.50/bin/bin/../../lib/gcc/pic32mx/4.8.3/../../../../pic32mx/lib/fpu64\libpic32.a(pic32_init_tlb_ebi_sqi.o)
 .text          0x00000000        0x0 c:/program files/microchip/xc32/v2.50/bin/bin/../../lib/gcc/pic32mx/4.8.3/../../../../pic32mx/lib/fpu64\libpic32.a(general-exception.o)
 .data          0x00000000        0x0 c:/program files/microchip/xc32/v2.50/bin/bin/../../lib/gcc/pic32mx/4.8.3/../../../../pic32mx/lib/fpu64\libpic32.a(general-exception.o)
 .bss           0x00000000        0x0 c:/program files/microchip/xc32/v2.50/bin/bin/../../lib/gcc/pic32mx/4.8.3/../../../../pic32mx/lib/fpu64\libpic32.a(general-exception.o)
 .reginfo       0x00000000       0x18 c:/program files/microchip/xc32/v2.50/bin/bin/../../lib/gcc/pic32mx/4.8.3/../../../../pic32mx/lib/fpu64\libpic32.a(general-exception.o)
 .text          0x00000000        0x0 c:/program files/microchip/xc32/v2.50/bin/bin/../../lib/gcc/pic32mx/4.8.3/../../../../pic32mx/lib/fpu64\libpic32.a(cache-err-exception.o)
 .data          0x00000000        0x0 c:/program files/microchip/xc32/v2.50/bin/bin/../../lib/gcc/pic32mx/4.8.3/../../../../pic32mx/lib/fpu64\libpic32.a(cache-err-exception.o)
 .bss           0x00000000        0x0 c:/program files/microchip/xc32/v2.50/bin/bin/../../lib/gcc/pic32mx/4.8.3/../../../../pic32mx/lib/fpu64\libpic32.a(cache-err-exception.o)
 .reginfo       0x00000000       0x18 c:/program files/microchip/xc32/v2.50/bin/bin/../../lib/gcc/pic32mx/4.8.3/../../../../pic32mx/lib/fpu64\libpic32.a(cache-err-exception.o)
 .text          0x00000000        0x0 c:/program files/microchip/xc32/v2.50/bin/bin/../../lib/gcc/pic32mx/4.8.3/../../../../pic32mx/lib/fpu64\libpic32.a(simple-tlb-refill-exception.o)
 .data          0x00000000        0x0 c:/program files/microchip/xc32/v2.50/bin/bin/../../lib/gcc/pic32mx/4.8.3/../../../../pic32mx/lib/fpu64\libpic32.a(simple-tlb-refill-exception.o)
 .bss           0x00000000        0x0 c:/program files/microchip/xc32/v2.50/bin/bin/../../lib/gcc/pic32mx/4.8.3/../../../../pic32mx/lib/fpu64\libpic32.a(simple-tlb-refill-exception.o)
 .reginfo       0x00000000       0x18 c:/program files/microchip/xc32/v2.50/bin/bin/../../lib/gcc/pic32mx/4.8.3/../../../../pic32mx/lib/fpu64\libpic32.a(simple-tlb-refill-exception.o)
 .text          0x00000000        0x0 c:/program files/microchip/xc32/v2.50/bin/bin/../../lib/gcc/pic32mx/4.8.3/../../../../pic32mx/lib/fpu64\libpic32.a(defaultinterrupt.o)
 .data          0x00000000        0x0 c:/program files/microchip/xc32/v2.50/bin/bin/../../lib/gcc/pic32mx/4.8.3/../../../../pic32mx/lib/fpu64\libpic32.a(defaultinterrupt.o)
 .bss           0x00000000        0x0 c:/program files/microchip/xc32/v2.50/bin/bin/../../lib/gcc/pic32mx/4.8.3/../../../../pic32mx/lib/fpu64\libpic32.a(defaultinterrupt.o)
 .reginfo       0x00000000       0x18 c:/program files/microchip/xc32/v2.50/bin/bin/../../lib/gcc/pic32mx/4.8.3/../../../../pic32mx/lib/fpu64\libpic32.a(defaultinterrupt.o)
 .text          0x00000000        0x0 c:/program files/microchip/xc32/v2.50/bin/bin/../../lib/gcc/pic32mx/4.8.3/../../../../pic32mx/lib/fpu64\libpic32.a(default-cache-err-exception-handler.o)
 .data          0x00000000        0x0 c:/program files/microchip/xc32/v2.50/bin/bin/../../lib/gcc/pic32mx/4.8.3/../../../../pic32mx/lib/fpu64\libpic32.a(default-cache-err-exception-handler.o)
 .bss           0x00000000        0x0 c:/program files/microchip/xc32/v2.50/bin/bin/../../lib/gcc/pic32mx/4.8.3/../../../../pic32mx/lib/fpu64\libpic32.a(default-cache-err-exception-handler.o)
 .reginfo       0x00000000       0x18 c:/program files/microchip/xc32/v2.50/bin/bin/../../lib/gcc/pic32mx/4.8.3/../../../../pic32mx/lib/fpu64\libpic32.a(default-cache-err-exception-handler.o)
 .text          0x00000000        0x0 c:/program files/microchip/xc32/v2.50/bin/bin/../../lib/gcc/pic32mx/4.8.3/../../../../pic32mx/lib/fpu64\libpic32.a(default-simple-tlb-refill-exception-handler.o)
 .data          0x00000000        0x0 c:/program files/microchip/xc32/v2.50/bin/bin/../../lib/gcc/pic32mx/4.8.3/../../../../pic32mx/lib/fpu64\libpic32.a(default-simple-tlb-refill-exception-handler.o)
 .bss           0x00000000        0x0 c:/program files/microchip/xc32/v2.50/bin/bin/../../lib/gcc/pic32mx/4.8.3/../../../../pic32mx/lib/fpu64\libpic32.a(default-simple-tlb-refill-exception-handler.o)
 .reginfo       0x00000000       0x18 c:/program files/microchip/xc32/v2.50/bin/bin/../../lib/gcc/pic32mx/4.8.3/../../../../pic32mx/lib/fpu64\libpic32.a(default-simple-tlb-refill-exception-handler.o)
 .text          0x00000000        0x0 c:/program files/microchip/xc32/v2.50/bin/bin/../../lib/gcc/pic32mx/4.8.3/../../../../pic32mx/lib/fpu64\liblega-c.a(strncmp.o)
 .data          0x00000000        0x0 c:/program files/microchip/xc32/v2.50/bin/bin/../../lib/gcc/pic32mx/4.8.3/../../../../pic32mx/lib/fpu64\liblega-c.a(strncmp.o)
 .bss           0x00000000        0x0 c:/program files/microchip/xc32/v2.50/bin/bin/../../lib/gcc/pic32mx/4.8.3/../../../../pic32mx/lib/fpu64\liblega-c.a(strncmp.o)
 .reginfo       0x00000000       0x18 c:/program files/microchip/xc32/v2.50/bin/bin/../../lib/gcc/pic32mx/4.8.3/../../../../pic32mx/lib/fpu64\liblega-c.a(strncmp.o)
 .text          0x00000000        0x0 c:/program files/microchip/xc32/v2.50/bin/bin/../../lib/gcc/pic32mx/4.8.3/../../../../pic32mx/lib/fpu64\liblega-c.a(strncpy.o)
 .data          0x00000000        0x0 c:/program files/microchip/xc32/v2.50/bin/bin/../../lib/gcc/pic32mx/4.8.3/../../../../pic32mx/lib/fpu64\liblega-c.a(strncpy.o)
 .bss           0x00000000        0x0 c:/program files/microchip/xc32/v2.50/bin/bin/../../lib/gcc/pic32mx/4.8.3/../../../../pic32mx/lib/fpu64\liblega-c.a(strncpy.o)
 .reginfo       0x00000000       0x18 c:/program files/microchip/xc32/v2.50/bin/bin/../../lib/gcc/pic32mx/4.8.3/../../../../pic32mx/lib/fpu64\liblega-c.a(strncpy.o)
 .text          0x00000000        0x0 c:/program files/microchip/xc32/v2.50/bin/bin/../../lib/gcc/pic32mx/4.8.3/../../../../pic32mx/lib/fpu64\liblega-c.a(strchr.o)
 .data          0x00000000        0x0 c:/program files/microchip/xc32/v2.50/bin/bin/../../lib/gcc/pic32mx/4.8.3/../../../../pic32mx/lib/fpu64\liblega-c.a(strchr.o)
 .bss           0x00000000        0x0 c:/program files/microchip/xc32/v2.50/bin/bin/../../lib/gcc/pic32mx/4.8.3/../../../../pic32mx/lib/fpu64\liblega-c.a(strchr.o)
 .reginfo       0x00000000       0x18 c:/program files/microchip/xc32/v2.50/bin/bin/../../lib/gcc/pic32mx/4.8.3/../../../../pic32mx/lib/fpu64\liblega-c.a(strchr.o)

Memory Configuration

Name             Origin             Length             Attributes
kseg0_data_mem   0x80000000         0x00080000         w !x
kseg1_data_mem   0xa0000000         0x00000380
kseg0_program_mem 0x9d000000         0x00200000         xr
kseg0_boot_mem   0x9fc004b0         0x00000000
kseg1_boot_mem   0xbfc00000         0x00000480
kseg1_boot_mem_4B0 0xbfc004b0         0x0000fa50
config_BFC0FF40  0xbfc0ff40         0x00000004
config_BFC0FF44  0xbfc0ff44         0x00000004
config_BFC0FF48  0xbfc0ff48         0x00000004
config_BFC0FF4C  0xbfc0ff4c         0x00000004
config_BFC0FF50  0xbfc0ff50         0x00000004
config_BFC0FF54  0xbfc0ff54         0x00000004
config_BFC0FF58  0xbfc0ff58         0x00000004
config_BFC0FF5C  0xbfc0ff5c         0x00000004
config_BFC0FF60  0xbfc0ff60         0x00000004
config_BFC0FF64  0xbfc0ff64         0x00000004
config_BFC0FF68  0xbfc0ff68         0x00000004
config_BFC0FF6C  0xbfc0ff6c         0x00000004
config_BFC0FF70  0xbfc0ff70         0x00000004
config_BFC0FF74  0xbfc0ff74         0x00000004
config_BFC0FF78  0xbfc0ff78         0x00000004
config_BFC0FF7C  0xbfc0ff7c         0x00000004
config_BFC0FFC0  0xbfc0ffc0         0x00000004
config_BFC0FFC4  0xbfc0ffc4         0x00000004
config_BFC0FFC8  0xbfc0ffc8         0x00000004
config_BFC0FFCC  0xbfc0ffcc         0x00000004
config_BFC0FFD0  0xbfc0ffd0         0x00000004
config_BFC0FFD4  0xbfc0ffd4         0x00000004
config_BFC0FFD8  0xbfc0ffd8         0x00000004
config_BFC0FFDC  0xbfc0ffdc         0x00000004
config_BFC0FFE0  0xbfc0ffe0         0x00000004
config_BFC0FFE4  0xbfc0ffe4         0x00000004
config_BFC0FFE8  0xbfc0ffe8         0x00000004
config_BFC0FFEC  0xbfc0ffec         0x00000004
config_BFC0FFF0  0xbfc0fff0         0x00000004
config_BFC0FFF4  0xbfc0fff4         0x00000004
config_BFC0FFF8  0xbfc0fff8         0x00000004
config_BFC0FFFC  0xbfc0fffc         0x00000004
lowerbootaliaslastpage 0xbfc10000         0x00004000
upperbootalias   0xbfc20000         0x0000ff00
config_BFC2FF40  0xbfc2ff40         0x00000004
config_BFC2FF44  0xbfc2ff44         0x00000004
config_BFC2FF48  0xbfc2ff48         0x00000004
config_BFC2FF4C  0xbfc2ff4c         0x00000004
config_BFC2FF50  0xbfc2ff50         0x00000004
config_BFC2FF54  0xbfc2ff54         0x00000004
config_BFC2FF58  0xbfc2ff58         0x00000004
config_BFC2FF5C  0xbfc2ff5c         0x00000004
config_BFC2FF60  0xbfc2ff60         0x00000004
config_BFC2FF64  0xbfc2ff64         0x00000004
config_BFC2FF68  0xbfc2ff68         0x00000004
config_BFC2FF6C  0xbfc2ff6c         0x00000004
config_BFC2FF70  0xbfc2ff70         0x00000004
config_BFC2FF74  0xbfc2ff74         0x00000004
config_BFC2FF78  0xbfc2ff78         0x00000004
config_BFC2FF7C  0xbfc2ff7c         0x00000004
config_BFC2FFC0  0xbfc2ffc0         0x00000004
config_BFC2FFC4  0xbfc2ffc4         0x00000004
config_BFC2FFC8  0xbfc2ffc8         0x00000004
config_BFC2FFCC  0xbfc2ffcc         0x00000004
config_BFC2FFD0  0xbfc2ffd0         0x00000004
config_BFC2FFD4  0xbfc2ffd4         0x00000004
config_BFC2FFD8  0xbfc2ffd8         0x00000004
config_BFC2FFDC  0xbfc2ffdc         0x00000004
config_BFC2FFE0  0xbfc2ffe0         0x00000004
config_BFC2FFE4  0xbfc2ffe4         0x00000004
config_BFC2FFE8  0xbfc2ffe8         0x00000004
config_BFC2FFEC  0xbfc2ffec         0x00000004
config_BFC2FFF0  0xbfc2fff0         0x00000004
config_BFC2FFF4  0xbfc2fff4         0x00000004
config_BFC2FFF8  0xbfc2fff8         0x00000004
config_BFC2FFFC  0xbfc2fffc         0x00000004
upperbootaliaslastpage 0xbfc30000         0x00004000
boot1            0xbfc40000         0x0000ff00
config_BFC4FF40  0xbfc4ff40         0x00000004
config_BFC4FF44  0xbfc4ff44         0x00000004
config_BFC4FF48  0xbfc4ff48         0x00000004
config_BFC4FF4C  0xbfc4ff4c         0x00000004
config_BFC4FF50  0xbfc4ff50         0x00000004
config_BFC4FF54  0xbfc4ff54         0x00000004
config_BFC4FF58  0xbfc4ff58         0x00000004
config_BFC4FF5C  0xbfc4ff5c         0x00000004
config_BFC4FF60  0xbfc4ff60         0x00000004
config_BFC4FF64  0xbfc4ff64         0x00000004
config_BFC4FF68  0xbfc4ff68         0x00000004
config_BFC4FF6C  0xbfc4ff6c         0x00000004
config_BFC4FF70  0xbfc4ff70         0x00000004
config_BFC4FF74  0xbfc4ff74         0x00000004
config_BFC4FF78  0xbfc4ff78         0x00000004
config_BFC4FF7C  0xbfc4ff7c         0x00000004
config_BFC4FFC0  0xbfc4ffc0         0x00000004
config_BFC4FFC4  0xbfc4ffc4         0x00000004
config_BFC4FFC8  0xbfc4ffc8         0x00000004
config_BFC4FFCC  0xbfc4ffcc         0x00000004
config_BFC4FFD0  0xbfc4ffd0         0x00000004
config_BFC4FFD4  0xbfc4ffd4         0x00000004
config_BFC4FFD8  0xbfc4ffd8         0x00000004
config_BFC4FFDC  0xbfc4ffdc         0x00000004
config_BFC4FFE0  0xbfc4ffe0         0x00000004
config_BFC4FFE4  0xbfc4ffe4         0x00000004
config_BFC4FFE8  0xbfc4ffe8         0x00000004
config_BFC4FFEC  0xbfc4ffec         0x00000004
config_BFC4FFF0  0xbfc4fff0         0x00000004
config_BFC4FFF4  0xbfc4fff4         0x00000004
config_BFC4FFF8  0xbfc4fff8         0x00000004
config_BFC4FFFC  0xbfc4fffc         0x00000004
boot1lastpage    0xbfc50000         0x00004000
config_BFC54000  0xbfc54000         0x00000004
config_BFC54004  0xbfc54004         0x00000004
config_BFC54008  0xbfc54008         0x00000004
config_BFC5400C  0xbfc5400c         0x00000004
config_BFC54010  0xbfc54010         0x00000004
config_BFC5401C  0xbfc5401c         0x00000004
config_BFC54020  0xbfc54020         0x00000004
config_BFC54024  0xbfc54024         0x00000004
boot2            0xbfc60000         0x0000ff00
config_BFC6FF40  0xbfc6ff40         0x00000004
config_BFC6FF44  0xbfc6ff44         0x00000004
config_BFC6FF48  0xbfc6ff48         0x00000004
config_BFC6FF4C  0xbfc6ff4c         0x00000004
config_BFC6FF50  0xbfc6ff50         0x00000004
config_BFC6FF54  0xbfc6ff54         0x00000004
config_BFC6FF58  0xbfc6ff58         0x00000004
config_BFC6FF5C  0xbfc6ff5c         0x00000004
config_BFC6FF60  0xbfc6ff60         0x00000004
config_BFC6FF64  0xbfc6ff64         0x00000004
config_BFC6FF68  0xbfc6ff68         0x00000004
config_BFC6FF6C  0xbfc6ff6c         0x00000004
config_BFC6FF70  0xbfc6ff70         0x00000004
config_BFC6FF74  0xbfc6ff74         0x00000004
config_BFC6FF78  0xbfc6ff78         0x00000004
config_BFC6FF7C  0xbfc6ff7c         0x00000004
config_BFC6FFC0  0xbfc6ffc0         0x00000004
config_BFC6FFC4  0xbfc6ffc4         0x00000004
config_BFC6FFC8  0xbfc6ffc8         0x00000004
config_BFC6FFCC  0xbfc6ffcc         0x00000004
config_BFC6FFD0  0xbfc6ffd0         0x00000004
config_BFC6FFD4  0xbfc6ffd4         0x00000004
config_BFC6FFD8  0xbfc6ffd8         0x00000004
config_BFC6FFDC  0xbfc6ffdc         0x00000004
config_BFC6FFE0  0xbfc6ffe0         0x00000004
config_BFC6FFE4  0xbfc6ffe4         0x00000004
config_BFC6FFE8  0xbfc6ffe8         0x00000004
config_BFC6FFEC  0xbfc6ffec         0x00000004
config_BFC6FFF0  0xbfc6fff0         0x00000004
config_BFC6FFF4  0xbfc6fff4         0x00000004
config_BFC6FFF8  0xbfc6fff8         0x00000004
config_BFC6FFFC  0xbfc6fffc         0x00000004
boot2lastpage    0xbfc70000         0x00004000
sfrs             0xbf800000         0x00100000
configsfrs_BFC0FF40 0xbfc0ff40         0x00000040
configsfrs_BFC0FFC0 0xbfc0ffc0         0x00000040
configsfrs_BFC2FF40 0xbfc2ff40         0x00000040
configsfrs_BFC2FFC0 0xbfc2ffc0         0x00000040
configsfrs_BFC4FF40 0xbfc4ff40         0x00000040
configsfrs_BFC4FFC0 0xbfc4ffc0         0x00000040
configsfrs_BFC54000 0xbfc54000         0x00000020
configsfrs_BFC6FF40 0xbfc6ff40         0x00000040
configsfrs_BFC6FFC0 0xbfc6ffc0         0x00000040
kseg2_ebi_data_mem 0xc0000000         0x04000000
kseg2_sqi_data_mem 0xd0000000         0x04000000
kseg3_ebi_data_mem 0xe0000000         0x04000000
kseg3_sqi_data_mem 0xf0000000         0x04000000
*default*        0x00000000         0xffffffff

Linker script and memory map


reserve_data_0_kseg0
                0x80000000      0x380
                0x80000000        0x2 SHORT 0x0
                0x00000380                . = 0x380
 *fill*         0x80000002      0x37e 
                0x80000380                . = ALIGN (0x4)

reserve_data_0_kseg1
                0xa0000000      0x380
                0xa0000000        0x2 SHORT 0x0
                0x00000380                . = 0x380
 *fill*         0xa0000002      0x37e 
                0xa0000380                . = ALIGN (0x4)
LOAD c:/program files/microchip/xc32/v2.50/bin/bin/../../lib/gcc/pic32mx/4.8.3/../../../../pic32mx/lib/fpu64\software-debug-break.o
LOAD build/default/debug/_ext/977502197/drv_spi_tasks.o
LOAD build/default/debug/_ext/977502197/drv_spi_api.o
LOAD build/default/debug/_ext/977502197/drv_spi_master_ebm_tasks.o
LOAD build/default/debug/_ext/1407244131/drv_tmr_static.o
LOAD build/default/debug/_ext/1407244131/drv_tmr_mapping.o
LOAD build/default/debug/_ext/327000265/drv_usart_mapping.o
LOAD build/default/debug/_ext/327000265/drv_usart_static.o
LOAD build/default/debug/_ext/327000265/drv_usart_static_byte_model.o
LOAD build/default/debug/_ext/639803181/sys_clk_pic32mz.o
LOAD build/default/debug/_ext/340578644/sys_devcon.o
LOAD build/default/debug/_ext/340578644/sys_devcon_pic32mz.o
LOAD build/default/debug/_ext/340578644/sys_devcon_cache_pic32mz.o
LOAD build/default/debug/_ext/822048611/sys_ports_static.o
LOAD build/default/debug/_ext/1688732426/system_init.o
LOAD build/default/debug/_ext/1688732426/system_interrupt.o
LOAD build/default/debug/_ext/1688732426/system_exceptions.o
LOAD build/default/debug/_ext/1688732426/system_tasks.o
LOAD build/default/debug/_ext/1360937237/app.o
LOAD build/default/debug/_ext/1360937237/main.o
LOAD build/default/debug/_ext/1360937237/switches.o
LOAD build/default/debug/_ext/1360937237/timers.o
LOAD build/default/debug/_ext/1360937237/crc.o
LOAD build/default/debug/_ext/1360937237/commands.o
LOAD build/default/debug/_ext/1360937237/statusst.o
LOAD build/default/debug/_ext/1360937237/fifo.o
LOAD build/default/debug/_ext/1360937237/commmodule.o
LOAD build/default/debug/_ext/1360937237/document.o
LOAD build/default/debug/_ext/1360937237/system_okay.o
LOAD build/default/debug/_ext/1360937237/test.o
LOAD build/default/debug/_ext/1360937237/gpt.o
LOAD build/default/debug/_ext/1360937237/high_side.o
LOAD build/default/debug/_ext/1360937237/gamma.o
LOAD build/default/debug/_ext/1360937237/nvm_disk_images.o
LOAD build/default/debug/_ext/1360937237/nvm_fs.o
LOAD build/default/debug/_ext/1360937237/hid.o
LOAD build/default/debug/_ext/1360937237/report.o
LOAD build/default/debug/_ext/2062801281/CLASSB_CPURegistersTest.o
LOAD build/default/debug/_ext/2062801281/CLASSB_CPUPCTest.o
LOAD build/default/debug/_ext/2062801281/CLASSB_CRCbyte.o
LOAD build/default/debug/_ext/2062801281/CLASSB_CRCFlashTest.o
LOAD build/default/debug/_ext/2062801281/CLASSB_RAMCheckerBoardTest.o
LOAD build/default/debug/_ext/2062801281/CLASSB_RAMMarchBTest.o
LOAD build/default/debug/_ext/2062801281/CLASSB_RAMMarchCStackTest.o
LOAD build/default/debug/_ext/2062801281/CLASSB_RAMMarchCTest.o
LOAD build/default/debug/_ext/274850301/drv_nvm.o
LOAD build/default/debug/_ext/274850301/drv_nvm_erasewrite.o
LOAD build/default/debug/_ext/1415029366/drv_spi.o
LOAD build/default/debug/_ext/1745438118/drv_spi_sys_queue_fifo.o
LOAD build/default/debug/_ext/1329795486/drv_usbhs.o
LOAD build/default/debug/_ext/1329795486/drv_usbhs_device.o
LOAD build/default/debug/_ext/746721678/sys_fs.o
LOAD build/default/debug/_ext/746721678/sys_fs_media_manager.o
LOAD build/default/debug/_ext/408548909/ff.o
LOAD build/default/debug/_ext/1290481162/diskio.o
LOAD build/default/debug/_ext/2087805404/sys_int_pic32.o
LOAD build/default/debug/_ext/945675698/sys_tmr.o
LOAD build/default/debug/_ext/419360567/usb_device.o
LOAD build/default/debug/_ext/419360567/usb_device_hid.o
LOAD ..\..\..\..\harmony\v2_06\bin\framework\peripheral\PIC32MZ2048EFH144_peripherals.a
                0x00000001                __MPLAB_BUILD = 0x1
                0x00000001                __MPLAB_DEBUG = 0x1
                0x00000001                __DEBUG = 0x1
                0x00000001                __MPLAB_DEBUGGER_ICD5 = 0x1
                0x00000200                _min_heap_size = 0x200
LOAD C:\Users\DAVID~1.DOB\AppData\Local\Temp\cchLGtk6.o
LOAD C:\Users\DAVID~1.DOB\AppData\Local\Temp\cc61u7Kr.o
LOAD C:\Users\DAVID~1.DOB\AppData\Local\Temp\cc32eKz8.o
LOAD c:/program files/microchip/xc32/v2.50/bin/bin/../../lib/gcc/pic32mx/4.8.3/../../../../pic32mx/lib/fpu64\pic32_software_reset.o
                0x00000400                PROVIDE (_min_stack_size, 0x400)
START GROUP
LOAD c:/program files/microchip/xc32/v2.50/bin/bin/../../lib/gcc/pic32mx/4.8.3/../../../../pic32mx/lib/./proc/32MZ2048EFH144\vector_offset_init.o
END GROUP
                0x00000001                PROVIDE (_vector_spacing, 0x1)
                0x9d000000                PROVIDE (_ebase_address, 0x9d000000)
                0xbfc00000                _RESET_ADDR = 0xbfc00000
                0xbfc00380                _BEV_EXCPT_ADDR = 0xbfc00380
                0xbfc00480                _DBG_EXCPT_ADDR = 0xbfc00480
                0x9d000000                _SIMPLE_TLB_REFILL_EXCPT_ADDR = (_ebase_address + 0x0)
                0x9d000100                _CACHE_ERR_EXCPT_ADDR = (_ebase_address + 0x100)
                0x9d000180                _GEN_EXCPT_ADDR = (_ebase_address + 0x180)

.config_BFC0FF40
 *(.config_BFC0FF40)

.config_BFC0FF44
 *(.config_BFC0FF44)

.config_BFC0FF48
 *(.config_BFC0FF48)

.config_BFC0FF4C
 *(.config_BFC0FF4C)

.config_BFC0FF50
 *(.config_BFC0FF50)

.config_BFC0FF54
 *(.config_BFC0FF54)

.config_BFC0FF58
 *(.config_BFC0FF58)

.config_BFC0FF5C
 *(.config_BFC0FF5C)

.config_BFC0FF60
 *(.config_BFC0FF60)

.config_BFC0FF64
 *(.config_BFC0FF64)

.config_BFC0FF68
 *(.config_BFC0FF68)

.config_BFC0FF6C
 *(.config_BFC0FF6C)

.config_BFC0FF70
 *(.config_BFC0FF70)

.config_BFC0FF74
 *(.config_BFC0FF74)

.config_BFC0FF78
 *(.config_BFC0FF78)

.config_BFC0FF7C
 *(.config_BFC0FF7C)

.config_BFC0FFC0
                0xbfc0ffc0        0x4
 *(.config_BFC0FFC0)
 .config_BFC0FFC0
                0xbfc0ffc0        0x4 build/default/debug/_ext/1688732426/system_init.o

.config_BFC0FFC4
                0xbfc0ffc4        0x4
 *(.config_BFC0FFC4)
 .config_BFC0FFC4
                0xbfc0ffc4        0x4 build/default/debug/_ext/1688732426/system_init.o

.config_BFC0FFC8
                0xbfc0ffc8        0x4
 *(.config_BFC0FFC8)
 .config_BFC0FFC8
                0xbfc0ffc8        0x4 build/default/debug/_ext/1688732426/system_init.o

.config_BFC0FFCC
                0xbfc0ffcc        0x4
 *(.config_BFC0FFCC)
 .config_BFC0FFCC
                0xbfc0ffcc        0x4 build/default/debug/_ext/1688732426/system_init.o

.config_BFC0FFD0
 *(.config_BFC0FFD0)

.config_BFC0FFD4
 *(.config_BFC0FFD4)

.config_BFC0FFD8
 *(.config_BFC0FFD8)

.config_BFC0FFDC
                0xbfc0ffdc        0x4
 *(.config_BFC0FFDC)
 .config_BFC0FFDC
                0xbfc0ffdc        0x4 build/default/debug/_ext/1688732426/system_init.o

.config_BFC0FFE0
 *(.config_BFC0FFE0)

.config_BFC0FFE4
 *(.config_BFC0FFE4)

.config_BFC0FFE8
 *(.config_BFC0FFE8)

.config_BFC0FFEC
 *(.config_BFC0FFEC)

.config_BFC0FFF0
                0xbfc0fff0        0x4
 *(.config_BFC0FFF0)
 .config_BFC0FFF0
                0xbfc0fff0        0x4 build/default/debug/_ext/1688732426/system_init.o

.config_BFC0FFF4
 *(.config_BFC0FFF4)

.config_BFC0FFF8
 *(.config_BFC0FFF8)

.config_BFC0FFFC
 *(.config_BFC0FFFC)

.config_BFC2FF40
 *(.config_BFC2FF40)

.config_BFC2FF44
 *(.config_BFC2FF44)

.config_BFC2FF48
 *(.config_BFC2FF48)

.config_BFC2FF4C
 *(.config_BFC2FF4C)

.config_BFC2FF50
 *(.config_BFC2FF50)

.config_BFC2FF54
 *(.config_BFC2FF54)

.config_BFC2FF58
 *(.config_BFC2FF58)

.config_BFC2FF5C
 *(.config_BFC2FF5C)

.config_BFC2FF60
 *(.config_BFC2FF60)

.config_BFC2FF64
 *(.config_BFC2FF64)

.config_BFC2FF68
 *(.config_BFC2FF68)

.config_BFC2FF6C
 *(.config_BFC2FF6C)

.config_BFC2FF70
 *(.config_BFC2FF70)

.config_BFC2FF74
 *(.config_BFC2FF74)

.config_BFC2FF78
 *(.config_BFC2FF78)

.config_BFC2FF7C
 *(.config_BFC2FF7C)

.config_BFC2FFC0
 *(.config_BFC2FFC0)

.config_BFC2FFC4
 *(.config_BFC2FFC4)

.config_BFC2FFC8
 *(.config_BFC2FFC8)

.config_BFC2FFCC
 *(.config_BFC2FFCC)

.config_BFC2FFD0
 *(.config_BFC2FFD0)

.config_BFC2FFD4
 *(.config_BFC2FFD4)

.config_BFC2FFD8
 *(.config_BFC2FFD8)

.config_BFC2FFDC
 *(.config_BFC2FFDC)

.config_BFC2FFE0
 *(.config_BFC2FFE0)

.config_BFC2FFE4
 *(.config_BFC2FFE4)

.config_BFC2FFE8
 *(.config_BFC2FFE8)

.config_BFC2FFEC
 *(.config_BFC2FFEC)

.config_BFC2FFF0
 *(.config_BFC2FFF0)

.config_BFC2FFF4
 *(.config_BFC2FFF4)

.config_BFC2FFF8
 *(.config_BFC2FFF8)

.config_BFC2FFFC
 *(.config_BFC2FFFC)

.config_BFC4FF40
 *(.config_BFC4FF40)

.config_BFC4FF44
 *(.config_BFC4FF44)

.config_BFC4FF48
 *(.config_BFC4FF48)

.config_BFC4FF4C
 *(.config_BFC4FF4C)

.config_BFC4FF50
 *(.config_BFC4FF50)

.config_BFC4FF54
 *(.config_BFC4FF54)

.config_BFC4FF58
 *(.config_BFC4FF58)

.config_BFC4FF5C
 *(.config_BFC4FF5C)

.config_BFC4FF60
 *(.config_BFC4FF60)

.config_BFC4FF64
 *(.config_BFC4FF64)

.config_BFC4FF68
 *(.config_BFC4FF68)

.config_BFC4FF6C
 *(.config_BFC4FF6C)

.config_BFC4FF70
 *(.config_BFC4FF70)

.config_BFC4FF74
 *(.config_BFC4FF74)

.config_BFC4FF78
 *(.config_BFC4FF78)

.config_BFC4FF7C
 *(.config_BFC4FF7C)

.config_BFC4FFC0
 *(.config_BFC4FFC0)

.config_BFC4FFC4
 *(.config_BFC4FFC4)

.config_BFC4FFC8
 *(.config_BFC4FFC8)

.config_BFC4FFCC
 *(.config_BFC4FFCC)

.config_BFC4FFD0
 *(.config_BFC4FFD0)

.config_BFC4FFD4
 *(.config_BFC4FFD4)

.config_BFC4FFD8
 *(.config_BFC4FFD8)

.config_BFC4FFDC
 *(.config_BFC4FFDC)

.config_BFC4FFE0
 *(.config_BFC4FFE0)

.config_BFC4FFE4
 *(.config_BFC4FFE4)

.config_BFC4FFE8
 *(.config_BFC4FFE8)

.config_BFC4FFEC
 *(.config_BFC4FFEC)

.config_BFC4FFF0
 *(.config_BFC4FFF0)

.config_BFC4FFF4
 *(.config_BFC4FFF4)

.config_BFC4FFF8
 *(.config_BFC4FFF8)

.config_BFC4FFFC
 *(.config_BFC4FFFC)

.config_BFC54000
 *(.config_BFC54000)

.config_BFC54004
 *(.config_BFC54004)

.config_BFC54008
 *(.config_BFC54008)

.config_BFC5400C
 *(.config_BFC5400C)

.config_BFC54010
 *(.config_BFC54010)

.config_BFC5401C
 *(.config_BFC5401C)

.config_BFC54020
 *(.config_BFC54020)

.config_BFC54024
 *(.config_BFC54024)

.config_BFC6FF40
 *(.config_BFC6FF40)

.config_BFC6FF44
 *(.config_BFC6FF44)

.config_BFC6FF48
 *(.config_BFC6FF48)

.config_BFC6FF4C
 *(.config_BFC6FF4C)

.config_BFC6FF50
 *(.config_BFC6FF50)

.config_BFC6FF54
 *(.config_BFC6FF54)

.config_BFC6FF58
 *(.config_BFC6FF58)

.config_BFC6FF5C
 *(.config_BFC6FF5C)

.config_BFC6FF60
 *(.config_BFC6FF60)

.config_BFC6FF64
 *(.config_BFC6FF64)

.config_BFC6FF68
 *(.config_BFC6FF68)

.config_BFC6FF6C
 *(.config_BFC6FF6C)

.config_BFC6FF70
 *(.config_BFC6FF70)

.config_BFC6FF74
 *(.config_BFC6FF74)

.config_BFC6FF78
 *(.config_BFC6FF78)

.config_BFC6FF7C
 *(.config_BFC6FF7C)

.config_BFC6FFC0
 *(.config_BFC6FFC0)

.config_BFC6FFC4
 *(.config_BFC6FFC4)

.config_BFC6FFC8
 *(.config_BFC6FFC8)

.config_BFC6FFCC
 *(.config_BFC6FFCC)

.config_BFC6FFD0
 *(.config_BFC6FFD0)

.config_BFC6FFD4
 *(.config_BFC6FFD4)

.config_BFC6FFD8
 *(.config_BFC6FFD8)

.config_BFC6FFDC
 *(.config_BFC6FFDC)

.config_BFC6FFE0
 *(.config_BFC6FFE0)

.config_BFC6FFE4
 *(.config_BFC6FFE4)

.config_BFC6FFE8
 *(.config_BFC6FFE8)

.config_BFC6FFEC
 *(.config_BFC6FFEC)

.config_BFC6FFF0
 *(.config_BFC6FFF0)

.config_BFC6FFF4
 *(.config_BFC6FFF4)

.config_BFC6FFF8
 *(.config_BFC6FFF8)

.config_BFC6FFFC
 *(.config_BFC6FFFC)

.reset          0xbfc00000      0x1c4
 *(.reset)
 .reset         0xbfc00000       0x18 C:\Users\DAVID~1.DOB\AppData\Local\Temp\cchLGtk6.o
                0xbfc00000                _reset
 *(.reset.startup)
 .reset.startup
                0xbfc00018      0x1ac C:\Users\DAVID~1.DOB\AppData\Local\Temp\cchLGtk6.o
                0xbfc00018                _startup

.bev_excpt      0xbfc00380       0x10
 *(.bev_handler)
 .bev_handler   0xbfc00380       0x10 C:\Users\DAVID~1.DOB\AppData\Local\Temp\cchLGtk6.o

.cache_init     0xbfc004b0      0x1c0
 *(.cache_init)
 *(.cache_init.*)
 .cache_init.cache
                0xbfc004b0       0xc0 c:/program files/microchip/xc32/v2.50/bin/bin/../../lib/gcc/pic32mx/4.8.3/../../../../pic32mx/lib/fpu64\libpic32.a(pic32_init_cache.o)
 .cache_init.pic32_init_cache
                0xbfc00570      0x100 c:/program files/microchip/xc32/v2.50/bin/bin/../../lib/gcc/pic32mx/4.8.3/../../../../pic32mx/lib/fpu64\libpic32.a(pic32_init_cache.o)
                0xbfc00570                __pic32_init_cache

.simple_tlb_refill_excpt
                0x9d000000       0x10
 *(.simple_tlb_refill_vector)
 .simple_tlb_refill_vector
                0x9d000000       0x10 C:\Users\DAVID~1.DOB\AppData\Local\Temp\cchLGtk6.o

.cache_err_excpt
                0x9d000100       0x10
 *(.cache_err_vector)
 .cache_err_vector
                0x9d000100       0x10 C:\Users\DAVID~1.DOB\AppData\Local\Temp\cchLGtk6.o

.app_excpt      0x9d000180       0x10
 *(.gen_handler)
 .gen_handler   0x9d000180       0x10 C:\Users\DAVID~1.DOB\AppData\Local\Temp\cchLGtk6.o

.vectors        0x9d000200       0xa0
                0x9d000200                . = ALIGN (0x4)
                0x00000258                __vector_offset_0 = DEFINED (__vector_dispatch_0)?(. - _ebase_address):__vector_offset_default
 *(.vector_0)
                0x9d000200                . = ALIGN (0x4)
                0x00000258                __vector_offset_1 = DEFINED (__vector_dispatch_1)?(. - _ebase_address):__vector_offset_default
 *(.vector_1)
                0x9d000200                . = ALIGN (0x4)
                0x00000258                __vector_offset_2 = DEFINED (__vector_dispatch_2)?(. - _ebase_address):__vector_offset_default
 *(.vector_2)
                0x9d000200                . = ALIGN (0x4)
                0x00000258                __vector_offset_3 = DEFINED (__vector_dispatch_3)?(. - _ebase_address):__vector_offset_default
 *(.vector_3)
                0x9d000200                . = ALIGN (0x4)
                0x00000200                __vector_offset_4 = DEFINED (__vector_dispatch_4)?(. - _ebase_address):__vector_offset_default
 *(.vector_4)
 .vector_4      0x9d000200        0x8 build/default/debug/_ext/1688732426/system_interrupt.o
                0x9d000200                __vector_dispatch_4
                0x9d000208                . = ALIGN (0x4)
                0x00000258                __vector_offset_5 = DEFINED (__vector_dispatch_5)?(. - _ebase_address):__vector_offset_default
 *(.vector_5)
                0x9d000208                . = ALIGN (0x4)
                0x00000258                __vector_offset_6 = DEFINED (__vector_dispatch_6)?(. - _ebase_address):__vector_offset_default
 *(.vector_6)
                0x9d000208                . = ALIGN (0x4)
                0x00000258                __vector_offset_7 = DEFINED (__vector_dispatch_7)?(. - _ebase_address):__vector_offset_default
 *(.vector_7)
                0x9d000208                . = ALIGN (0x4)
                0x00000258                __vector_offset_8 = DEFINED (__vector_dispatch_8)?(. - _ebase_address):__vector_offset_default
 *(.vector_8)
                0x9d000208                . = ALIGN (0x4)
                0x00000208                __vector_offset_9 = DEFINED (__vector_dispatch_9)?(. - _ebase_address):__vector_offset_default
 *(.vector_9)
 .vector_9      0x9d000208        0x8 build/default/debug/_ext/1688732426/system_interrupt.o
                0x9d000208                __vector_dispatch_9
                0x9d000210                . = ALIGN (0x4)
                0x00000258                __vector_offset_10 = DEFINED (__vector_dispatch_10)?(. - _ebase_address):__vector_offset_default
 *(.vector_10)
                0x9d000210                . = ALIGN (0x4)
                0x00000258                __vector_offset_11 = DEFINED (__vector_dispatch_11)?(. - _ebase_address):__vector_offset_default
 *(.vector_11)
                0x9d000210                . = ALIGN (0x4)
                0x00000258                __vector_offset_12 = DEFINED (__vector_dispatch_12)?(. - _ebase_address):__vector_offset_default
 *(.vector_12)
                0x9d000210                . = ALIGN (0x4)
                0x00000258                __vector_offset_13 = DEFINED (__vector_dispatch_13)?(. - _ebase_address):__vector_offset_default
 *(.vector_13)
                0x9d000210                . = ALIGN (0x4)
                0x00000258                __vector_offset_14 = DEFINED (__vector_dispatch_14)?(. - _ebase_address):__vector_offset_default
 *(.vector_14)
                0x9d000210                . = ALIGN (0x4)
                0x00000258                __vector_offset_15 = DEFINED (__vector_dispatch_15)?(. - _ebase_address):__vector_offset_default
 *(.vector_15)
                0x9d000210                . = ALIGN (0x4)
                0x00000258                __vector_offset_16 = DEFINED (__vector_dispatch_16)?(. - _ebase_address):__vector_offset_default
 *(.vector_16)
                0x9d000210                . = ALIGN (0x4)
                0x00000258                __vector_offset_17 = DEFINED (__vector_dispatch_17)?(. - _ebase_address):__vector_offset_default
 *(.vector_17)
                0x9d000210                . = ALIGN (0x4)
                0x00000258                __vector_offset_18 = DEFINED (__vector_dispatch_18)?(. - _ebase_address):__vector_offset_default
 *(.vector_18)
                0x9d000210                . = ALIGN (0x4)
                0x00000258                __vector_offset_19 = DEFINED (__vector_dispatch_19)?(. - _ebase_address):__vector_offset_default
 *(.vector_19)
                0x9d000210                . = ALIGN (0x4)
                0x00000258                __vector_offset_20 = DEFINED (__vector_dispatch_20)?(. - _ebase_address):__vector_offset_default
 *(.vector_20)
                0x9d000210                . = ALIGN (0x4)
                0x00000258                __vector_offset_21 = DEFINED (__vector_dispatch_21)?(. - _ebase_address):__vector_offset_default
 *(.vector_21)
                0x9d000210                . = ALIGN (0x4)
                0x00000258                __vector_offset_22 = DEFINED (__vector_dispatch_22)?(. - _ebase_address):__vector_offset_default
 *(.vector_22)
                0x9d000210                . = ALIGN (0x4)
                0x00000258                __vector_offset_23 = DEFINED (__vector_dispatch_23)?(. - _ebase_address):__vector_offset_default
 *(.vector_23)
                0x9d000210                . = ALIGN (0x4)
                0x00000258                __vector_offset_24 = DEFINED (__vector_dispatch_24)?(. - _ebase_address):__vector_offset_default
 *(.vector_24)
                0x9d000210                . = ALIGN (0x4)
                0x00000258                __vector_offset_25 = DEFINED (__vector_dispatch_25)?(. - _ebase_address):__vector_offset_default
 *(.vector_25)
                0x9d000210                . = ALIGN (0x4)
                0x00000258                __vector_offset_26 = DEFINED (__vector_dispatch_26)?(. - _ebase_address):__vector_offset_default
 *(.vector_26)
                0x9d000210                . = ALIGN (0x4)
                0x00000258                __vector_offset_27 = DEFINED (__vector_dispatch_27)?(. - _ebase_address):__vector_offset_default
 *(.vector_27)
                0x9d000210                . = ALIGN (0x4)
                0x00000210                __vector_offset_28 = DEFINED (__vector_dispatch_28)?(. - _ebase_address):__vector_offset_default
 *(.vector_28)
 .vector_28     0x9d000210        0x8 build/default/debug/_ext/1688732426/system_interrupt.o
                0x9d000210                __vector_dispatch_28
                0x9d000218                . = ALIGN (0x4)
                0x00000258                __vector_offset_29 = DEFINED (__vector_dispatch_29)?(. - _ebase_address):__vector_offset_default
 *(.vector_29)
                0x9d000218                . = ALIGN (0x4)
                0x00000258                __vector_offset_30 = DEFINED (__vector_dispatch_30)?(. - _ebase_address):__vector_offset_default
 *(.vector_30)
                0x9d000218                . = ALIGN (0x4)
                0x00000258                __vector_offset_31 = DEFINED (__vector_dispatch_31)?(. - _ebase_address):__vector_offset_default
 *(.vector_31)
                0x9d000218                . = ALIGN (0x4)
                0x00000218                __vector_offset_32 = DEFINED (__vector_dispatch_32)?(. - _ebase_address):__vector_offset_default
 *(.vector_32)
 .vector_32     0x9d000218        0x8 build/default/debug/_ext/1688732426/system_interrupt.o
                0x9d000218                __vector_dispatch_32
                0x9d000220                . = ALIGN (0x4)
                0x00000258                __vector_offset_33 = DEFINED (__vector_dispatch_33)?(. - _ebase_address):__vector_offset_default
 *(.vector_33)
                0x9d000220                . = ALIGN (0x4)
                0x00000258                __vector_offset_34 = DEFINED (__vector_dispatch_34)?(. - _ebase_address):__vector_offset_default
 *(.vector_34)
                0x9d000220                . = ALIGN (0x4)
                0x00000258                __vector_offset_35 = DEFINED (__vector_dispatch_35)?(. - _ebase_address):__vector_offset_default
 *(.vector_35)
                0x9d000220                . = ALIGN (0x4)
                0x00000220                __vector_offset_36 = DEFINED (__vector_dispatch_36)?(. - _ebase_address):__vector_offset_default
 *(.vector_36)
 .vector_36     0x9d000220        0x8 build/default/debug/_ext/1688732426/system_interrupt.o
                0x9d000220                __vector_dispatch_36
                0x9d000228                . = ALIGN (0x4)
                0x00000258                __vector_offset_37 = DEFINED (__vector_dispatch_37)?(. - _ebase_address):__vector_offset_default
 *(.vector_37)
                0x9d000228                . = ALIGN (0x4)
                0x00000258                __vector_offset_38 = DEFINED (__vector_dispatch_38)?(. - _ebase_address):__vector_offset_default
 *(.vector_38)
                0x9d000228                . = ALIGN (0x4)
                0x00000258                __vector_offset_39 = DEFINED (__vector_dispatch_39)?(. - _ebase_address):__vector_offset_default
 *(.vector_39)
                0x9d000228                . = ALIGN (0x4)
                0x00000258                __vector_offset_40 = DEFINED (__vector_dispatch_40)?(. - _ebase_address):__vector_offset_default
 *(.vector_40)
                0x9d000228                . = ALIGN (0x4)
                0x00000258                __vector_offset_41 = DEFINED (__vector_dispatch_41)?(. - _ebase_address):__vector_offset_default
 *(.vector_41)
                0x9d000228                . = ALIGN (0x4)
                0x00000258                __vector_offset_42 = DEFINED (__vector_dispatch_42)?(. - _ebase_address):__vector_offset_default
 *(.vector_42)
                0x9d000228                . = ALIGN (0x4)
                0x00000258                __vector_offset_43 = DEFINED (__vector_dispatch_43)?(. - _ebase_address):__vector_offset_default
 *(.vector_43)
                0x9d000228                . = ALIGN (0x4)
                0x00000258                __vector_offset_44 = DEFINED (__vector_dispatch_44)?(. - _ebase_address):__vector_offset_default
 *(.vector_44)
                0x9d000228                . = ALIGN (0x4)
                0x00000258                __vector_offset_45 = DEFINED (__vector_dispatch_45)?(. - _ebase_address):__vector_offset_default
 *(.vector_45)
                0x9d000228                . = ALIGN (0x4)
                0x00000258                __vector_offset_46 = DEFINED (__vector_dispatch_46)?(. - _ebase_address):__vector_offset_default
 *(.vector_46)
                0x9d000228                . = ALIGN (0x4)
                0x00000258                __vector_offset_47 = DEFINED (__vector_dispatch_47)?(. - _ebase_address):__vector_offset_default
 *(.vector_47)
                0x9d000228                . = ALIGN (0x4)
                0x00000258                __vector_offset_48 = DEFINED (__vector_dispatch_48)?(. - _ebase_address):__vector_offset_default
 *(.vector_48)
                0x9d000228                . = ALIGN (0x4)
                0x00000258                __vector_offset_49 = DEFINED (__vector_dispatch_49)?(. - _ebase_address):__vector_offset_default
 *(.vector_49)
                0x9d000228                . = ALIGN (0x4)
                0x00000258                __vector_offset_50 = DEFINED (__vector_dispatch_50)?(. - _ebase_address):__vector_offset_default
 *(.vector_50)
                0x9d000228                . = ALIGN (0x4)
                0x00000258                __vector_offset_51 = DEFINED (__vector_dispatch_51)?(. - _ebase_address):__vector_offset_default
 *(.vector_51)
                0x9d000228                . = ALIGN (0x4)
                0x00000258                __vector_offset_52 = DEFINED (__vector_dispatch_52)?(. - _ebase_address):__vector_offset_default
 *(.vector_52)
                0x9d000228                . = ALIGN (0x4)
                0x00000258                __vector_offset_53 = DEFINED (__vector_dispatch_53)?(. - _ebase_address):__vector_offset_default
 *(.vector_53)
                0x9d000228                . = ALIGN (0x4)
                0x00000258                __vector_offset_54 = DEFINED (__vector_dispatch_54)?(. - _ebase_address):__vector_offset_default
 *(.vector_54)
                0x9d000228                . = ALIGN (0x4)
                0x00000258                __vector_offset_55 = DEFINED (__vector_dispatch_55)?(. - _ebase_address):__vector_offset_default
 *(.vector_55)
                0x9d000228                . = ALIGN (0x4)
                0x00000258                __vector_offset_56 = DEFINED (__vector_dispatch_56)?(. - _ebase_address):__vector_offset_default
 *(.vector_56)
                0x9d000228                . = ALIGN (0x4)
                0x00000258                __vector_offset_57 = DEFINED (__vector_dispatch_57)?(. - _ebase_address):__vector_offset_default
 *(.vector_57)
                0x9d000228                . = ALIGN (0x4)
                0x00000258                __vector_offset_58 = DEFINED (__vector_dispatch_58)?(. - _ebase_address):__vector_offset_default
 *(.vector_58)
                0x9d000228                . = ALIGN (0x4)
                0x00000258                __vector_offset_59 = DEFINED (__vector_dispatch_59)?(. - _ebase_address):__vector_offset_default
 *(.vector_59)
                0x9d000228                . = ALIGN (0x4)
                0x00000258                __vector_offset_60 = DEFINED (__vector_dispatch_60)?(. - _ebase_address):__vector_offset_default
 *(.vector_60)
                0x9d000228                . = ALIGN (0x4)
                0x00000258                __vector_offset_61 = DEFINED (__vector_dispatch_61)?(. - _ebase_address):__vector_offset_default
 *(.vector_61)
                0x9d000228                . = ALIGN (0x4)
                0x00000258                __vector_offset_62 = DEFINED (__vector_dispatch_62)?(. - _ebase_address):__vector_offset_default
 *(.vector_62)
                0x9d000228                . = ALIGN (0x4)
                0x00000258                __vector_offset_63 = DEFINED (__vector_dispatch_63)?(. - _ebase_address):__vector_offset_default
 *(.vector_63)
                0x9d000228                . = ALIGN (0x4)
                0x00000258                __vector_offset_64 = DEFINED (__vector_dispatch_64)?(. - _ebase_address):__vector_offset_default
 *(.vector_64)
                0x9d000228                . = ALIGN (0x4)
                0x00000258                __vector_offset_65 = DEFINED (__vector_dispatch_65)?(. - _ebase_address):__vector_offset_default
 *(.vector_65)
                0x9d000228                . = ALIGN (0x4)
                0x00000258                __vector_offset_66 = DEFINED (__vector_dispatch_66)?(. - _ebase_address):__vector_offset_default
 *(.vector_66)
                0x9d000228                . = ALIGN (0x4)
                0x00000258                __vector_offset_67 = DEFINED (__vector_dispatch_67)?(. - _ebase_address):__vector_offset_default
 *(.vector_67)
                0x9d000228                . = ALIGN (0x4)
                0x00000258                __vector_offset_68 = DEFINED (__vector_dispatch_68)?(. - _ebase_address):__vector_offset_default
 *(.vector_68)
                0x9d000228                . = ALIGN (0x4)
                0x00000258                __vector_offset_69 = DEFINED (__vector_dispatch_69)?(. - _ebase_address):__vector_offset_default
 *(.vector_69)
                0x9d000228                . = ALIGN (0x4)
                0x00000258                __vector_offset_70 = DEFINED (__vector_dispatch_70)?(. - _ebase_address):__vector_offset_default
 *(.vector_70)
                0x9d000228                . = ALIGN (0x4)
                0x00000258                __vector_offset_71 = DEFINED (__vector_dispatch_71)?(. - _ebase_address):__vector_offset_default
 *(.vector_71)
                0x9d000228                . = ALIGN (0x4)
                0x00000258                __vector_offset_72 = DEFINED (__vector_dispatch_72)?(. - _ebase_address):__vector_offset_default
 *(.vector_72)
                0x9d000228                . = ALIGN (0x4)
                0x00000258                __vector_offset_73 = DEFINED (__vector_dispatch_73)?(. - _ebase_address):__vector_offset_default
 *(.vector_73)
                0x9d000228                . = ALIGN (0x4)
                0x00000258                __vector_offset_74 = DEFINED (__vector_dispatch_74)?(. - _ebase_address):__vector_offset_default
 *(.vector_74)
                0x9d000228                . = ALIGN (0x4)
                0x00000258                __vector_offset_75 = DEFINED (__vector_dispatch_75)?(. - _ebase_address):__vector_offset_default
 *(.vector_75)
                0x9d000228                . = ALIGN (0x4)
                0x00000258                __vector_offset_76 = DEFINED (__vector_dispatch_76)?(. - _ebase_address):__vector_offset_default
 *(.vector_76)
                0x9d000228                . = ALIGN (0x4)
                0x00000258                __vector_offset_77 = DEFINED (__vector_dispatch_77)?(. - _ebase_address):__vector_offset_default
 *(.vector_77)
                0x9d000228                . = ALIGN (0x4)
                0x00000258                __vector_offset_78 = DEFINED (__vector_dispatch_78)?(. - _ebase_address):__vector_offset_default
 *(.vector_78)
                0x9d000228                . = ALIGN (0x4)
                0x00000258                __vector_offset_79 = DEFINED (__vector_dispatch_79)?(. - _ebase_address):__vector_offset_default
 *(.vector_79)
                0x9d000228                . = ALIGN (0x4)
                0x00000258                __vector_offset_80 = DEFINED (__vector_dispatch_80)?(. - _ebase_address):__vector_offset_default
 *(.vector_80)
                0x9d000228                . = ALIGN (0x4)
                0x00000258                __vector_offset_81 = DEFINED (__vector_dispatch_81)?(. - _ebase_address):__vector_offset_default
 *(.vector_81)
                0x9d000228                . = ALIGN (0x4)
                0x00000258                __vector_offset_82 = DEFINED (__vector_dispatch_82)?(. - _ebase_address):__vector_offset_default
 *(.vector_82)
                0x9d000228                . = ALIGN (0x4)
                0x00000258                __vector_offset_83 = DEFINED (__vector_dispatch_83)?(. - _ebase_address):__vector_offset_default
 *(.vector_83)
                0x9d000228                . = ALIGN (0x4)
                0x00000258                __vector_offset_84 = DEFINED (__vector_dispatch_84)?(. - _ebase_address):__vector_offset_default
 *(.vector_84)
                0x9d000228                . = ALIGN (0x4)
                0x00000258                __vector_offset_85 = DEFINED (__vector_dispatch_85)?(. - _ebase_address):__vector_offset_default
 *(.vector_85)
                0x9d000228                . = ALIGN (0x4)
                0x00000258                __vector_offset_86 = DEFINED (__vector_dispatch_86)?(. - _ebase_address):__vector_offset_default
 *(.vector_86)
                0x9d000228                . = ALIGN (0x4)
                0x00000258                __vector_offset_87 = DEFINED (__vector_dispatch_87)?(. - _ebase_address):__vector_offset_default
 *(.vector_87)
                0x9d000228                . = ALIGN (0x4)
                0x00000258                __vector_offset_88 = DEFINED (__vector_dispatch_88)?(. - _ebase_address):__vector_offset_default
 *(.vector_88)
                0x9d000228                . = ALIGN (0x4)
                0x00000258                __vector_offset_89 = DEFINED (__vector_dispatch_89)?(. - _ebase_address):__vector_offset_default
 *(.vector_89)
                0x9d000228                . = ALIGN (0x4)
                0x00000258                __vector_offset_90 = DEFINED (__vector_dispatch_90)?(. - _ebase_address):__vector_offset_default
 *(.vector_90)
                0x9d000228                . = ALIGN (0x4)
                0x00000258                __vector_offset_91 = DEFINED (__vector_dispatch_91)?(. - _ebase_address):__vector_offset_default
 *(.vector_91)
                0x9d000228                . = ALIGN (0x4)
                0x00000258                __vector_offset_92 = DEFINED (__vector_dispatch_92)?(. - _ebase_address):__vector_offset_default
 *(.vector_92)
                0x9d000228                . = ALIGN (0x4)
                0x00000258                __vector_offset_93 = DEFINED (__vector_dispatch_93)?(. - _ebase_address):__vector_offset_default
 *(.vector_93)
                0x9d000228                . = ALIGN (0x4)
                0x00000258                __vector_offset_94 = DEFINED (__vector_dispatch_94)?(. - _ebase_address):__vector_offset_default
 *(.vector_94)
                0x9d000228                . = ALIGN (0x4)
                0x00000258                __vector_offset_95 = DEFINED (__vector_dispatch_95)?(. - _ebase_address):__vector_offset_default
 *(.vector_95)
                0x9d000228                . = ALIGN (0x4)
                0x00000258                __vector_offset_96 = DEFINED (__vector_dispatch_96)?(. - _ebase_address):__vector_offset_default
 *(.vector_96)
                0x9d000228                . = ALIGN (0x4)
                0x00000258                __vector_offset_97 = DEFINED (__vector_dispatch_97)?(. - _ebase_address):__vector_offset_default
 *(.vector_97)
                0x9d000228                . = ALIGN (0x4)
                0x00000258                __vector_offset_98 = DEFINED (__vector_dispatch_98)?(. - _ebase_address):__vector_offset_default
 *(.vector_98)
                0x9d000228                . = ALIGN (0x4)
                0x00000258                __vector_offset_99 = DEFINED (__vector_dispatch_99)?(. - _ebase_address):__vector_offset_default
 *(.vector_99)
                0x9d000228                . = ALIGN (0x4)
                0x00000258                __vector_offset_100 = DEFINED (__vector_dispatch_100)?(. - _ebase_address):__vector_offset_default
 *(.vector_100)
                0x9d000228                . = ALIGN (0x4)
                0x00000258                __vector_offset_101 = DEFINED (__vector_dispatch_101)?(. - _ebase_address):__vector_offset_default
 *(.vector_101)
                0x9d000228                . = ALIGN (0x4)
                0x00000258                __vector_offset_102 = DEFINED (__vector_dispatch_102)?(. - _ebase_address):__vector_offset_default
 *(.vector_102)
                0x9d000228                . = ALIGN (0x4)
                0x00000258                __vector_offset_103 = DEFINED (__vector_dispatch_103)?(. - _ebase_address):__vector_offset_default
 *(.vector_103)
                0x9d000228                . = ALIGN (0x4)
                0x00000258                __vector_offset_104 = DEFINED (__vector_dispatch_104)?(. - _ebase_address):__vector_offset_default
 *(.vector_104)
                0x9d000228                . = ALIGN (0x4)
                0x00000258                __vector_offset_105 = DEFINED (__vector_dispatch_105)?(. - _ebase_address):__vector_offset_default
 *(.vector_105)
                0x9d000228                . = ALIGN (0x4)
                0x00000258                __vector_offset_106 = DEFINED (__vector_dispatch_106)?(. - _ebase_address):__vector_offset_default
 *(.vector_106)
                0x9d000228                . = ALIGN (0x4)
                0x00000258                __vector_offset_107 = DEFINED (__vector_dispatch_107)?(. - _ebase_address):__vector_offset_default
 *(.vector_107)
                0x9d000228                . = ALIGN (0x4)
                0x00000258                __vector_offset_108 = DEFINED (__vector_dispatch_108)?(. - _ebase_address):__vector_offset_default
 *(.vector_108)
                0x9d000228                . = ALIGN (0x4)
                0x00000258                __vector_offset_109 = DEFINED (__vector_dispatch_109)?(. - _ebase_address):__vector_offset_default
 *(.vector_109)
                0x9d000228                . = ALIGN (0x4)
                0x00000258                __vector_offset_110 = DEFINED (__vector_dispatch_110)?(. - _ebase_address):__vector_offset_default
 *(.vector_110)
                0x9d000228                . = ALIGN (0x4)
                0x00000258                __vector_offset_111 = DEFINED (__vector_dispatch_111)?(. - _ebase_address):__vector_offset_default
 *(.vector_111)
                0x9d000228                . = ALIGN (0x4)
                0x00000258                __vector_offset_112 = DEFINED (__vector_dispatch_112)?(. - _ebase_address):__vector_offset_default
 *(.vector_112)
                0x9d000228                . = ALIGN (0x4)
                0x00000258                __vector_offset_113 = DEFINED (__vector_dispatch_113)?(. - _ebase_address):__vector_offset_default
 *(.vector_113)
                0x9d000228                . = ALIGN (0x4)
                0x00000258                __vector_offset_114 = DEFINED (__vector_dispatch_114)?(. - _ebase_address):__vector_offset_default
 *(.vector_114)
                0x9d000228                . = ALIGN (0x4)
                0x00000258                __vector_offset_115 = DEFINED (__vector_dispatch_115)?(. - _ebase_address):__vector_offset_default
 *(.vector_115)
                0x9d000228                . = ALIGN (0x4)
                0x00000258                __vector_offset_116 = DEFINED (__vector_dispatch_116)?(. - _ebase_address):__vector_offset_default
 *(.vector_116)
                0x9d000228                . = ALIGN (0x4)
                0x00000258                __vector_offset_117 = DEFINED (__vector_dispatch_117)?(. - _ebase_address):__vector_offset_default
 *(.vector_117)
                0x9d000228                . = ALIGN (0x4)
                0x00000258                __vector_offset_118 = DEFINED (__vector_dispatch_118)?(. - _ebase_address):__vector_offset_default
 *(.vector_118)
                0x9d000228                . = ALIGN (0x4)
                0x00000258                __vector_offset_119 = DEFINED (__vector_dispatch_119)?(. - _ebase_address):__vector_offset_default
 *(.vector_119)
                0x9d000228                . = ALIGN (0x4)
                0x00000228                __vector_offset_120 = DEFINED (__vector_dispatch_120)?(. - _ebase_address):__vector_offset_default
 *(.vector_120)
 .vector_120    0x9d000228        0x8 build/default/debug/_ext/1688732426/system_interrupt.o
                0x9d000228                __vector_dispatch_120
                0x9d000230                . = ALIGN (0x4)
                0x00000230                __vector_offset_121 = DEFINED (__vector_dispatch_121)?(. - _ebase_address):__vector_offset_default
 *(.vector_121)
 .vector_121    0x9d000230        0x8 build/default/debug/_ext/1688732426/system_interrupt.o
                0x9d000230                __vector_dispatch_121
                0x9d000238                . = ALIGN (0x4)
                0x00000258                __vector_offset_122 = DEFINED (__vector_dispatch_122)?(. - _ebase_address):__vector_offset_default
 *(.vector_122)
                0x9d000238                . = ALIGN (0x4)
                0x00000258                __vector_offset_123 = DEFINED (__vector_dispatch_123)?(. - _ebase_address):__vector_offset_default
 *(.vector_123)
                0x9d000238                . = ALIGN (0x4)
                0x00000258                __vector_offset_124 = DEFINED (__vector_dispatch_124)?(. - _ebase_address):__vector_offset_default
 *(.vector_124)
                0x9d000238                . = ALIGN (0x4)
                0x00000238                __vector_offset_125 = DEFINED (__vector_dispatch_125)?(. - _ebase_address):__vector_offset_default
 *(.vector_125)
 .vector_125    0x9d000238        0x8 build/default/debug/_ext/1688732426/system_interrupt.o
                0x9d000238                __vector_dispatch_125
                0x9d000240                . = ALIGN (0x4)
                0x00000258                __vector_offset_126 = DEFINED (__vector_dispatch_126)?(. - _ebase_address):__vector_offset_default
 *(.vector_126)
                0x9d000240                . = ALIGN (0x4)
                0x00000258                __vector_offset_127 = DEFINED (__vector_dispatch_127)?(. - _ebase_address):__vector_offset_default
 *(.vector_127)
                0x9d000240                . = ALIGN (0x4)
                0x00000258                __vector_offset_128 = DEFINED (__vector_dispatch_128)?(. - _ebase_address):__vector_offset_default
 *(.vector_128)
                0x9d000240                . = ALIGN (0x4)
                0x00000258                __vector_offset_129 = DEFINED (__vector_dispatch_129)?(. - _ebase_address):__vector_offset_default
 *(.vector_129)
                0x9d000240                . = ALIGN (0x4)
                0x00000258                __vector_offset_130 = DEFINED (__vector_dispatch_130)?(. - _ebase_address):__vector_offset_default
 *(.vector_130)
                0x9d000240                . = ALIGN (0x4)
                0x00000258                __vector_offset_131 = DEFINED (__vector_dispatch_131)?(. - _ebase_address):__vector_offset_default
 *(.vector_131)
                0x9d000240                . = ALIGN (0x4)
                0x00000240                __vector_offset_132 = DEFINED (__vector_dispatch_132)?(. - _ebase_address):__vector_offset_default
 *(.vector_132)
 .vector_132    0x9d000240        0x8 build/default/debug/_ext/1688732426/system_interrupt.o
                0x9d000240                __vector_dispatch_132
                0x9d000248                . = ALIGN (0x4)
                0x00000248                __vector_offset_133 = DEFINED (__vector_dispatch_133)?(. - _ebase_address):__vector_offset_default
 *(.vector_133)
 .vector_133    0x9d000248        0x8 build/default/debug/_ext/1688732426/system_interrupt.o
                0x9d000248                __vector_dispatch_133
                0x9d000250                . = ALIGN (0x4)
                0x00000258                __vector_offset_134 = DEFINED (__vector_dispatch_134)?(. - _ebase_address):__vector_offset_default
 *(.vector_134)
                0x9d000250                . = ALIGN (0x4)
                0x00000258                __vector_offset_135 = DEFINED (__vector_dispatch_135)?(. - _ebase_address):__vector_offset_default
 *(.vector_135)
                0x9d000250                . = ALIGN (0x4)
                0x00000258                __vector_offset_136 = DEFINED (__vector_dispatch_136)?(. - _ebase_address):__vector_offset_default
 *(.vector_136)
                0x9d000250                . = ALIGN (0x4)
                0x00000258                __vector_offset_137 = DEFINED (__vector_dispatch_137)?(. - _ebase_address):__vector_offset_default
 *(.vector_137)
                0x9d000250                . = ALIGN (0x4)
                0x00000258                __vector_offset_138 = DEFINED (__vector_dispatch_138)?(. - _ebase_address):__vector_offset_default
 *(.vector_138)
                0x9d000250                . = ALIGN (0x4)
                0x00000258                __vector_offset_139 = DEFINED (__vector_dispatch_139)?(. - _ebase_address):__vector_offset_default
 *(.vector_139)
                0x9d000250                . = ALIGN (0x4)
                0x00000258                __vector_offset_140 = DEFINED (__vector_dispatch_140)?(. - _ebase_address):__vector_offset_default
 *(.vector_140)
                0x9d000250                . = ALIGN (0x4)
                0x00000258                __vector_offset_141 = DEFINED (__vector_dispatch_141)?(. - _ebase_address):__vector_offset_default
 *(.vector_141)
                0x9d000250                . = ALIGN (0x4)
                0x00000258                __vector_offset_142 = DEFINED (__vector_dispatch_142)?(. - _ebase_address):__vector_offset_default
 *(.vector_142)
                0x9d000250                . = ALIGN (0x4)
                0x00000258                __vector_offset_143 = DEFINED (__vector_dispatch_143)?(. - _ebase_address):__vector_offset_default
 *(.vector_143)
                0x9d000250                . = ALIGN (0x4)
                0x00000258                __vector_offset_144 = DEFINED (__vector_dispatch_144)?(. - _ebase_address):__vector_offset_default
 *(.vector_144)
                0x9d000250                . = ALIGN (0x4)
                0x00000258                __vector_offset_145 = DEFINED (__vector_dispatch_145)?(. - _ebase_address):__vector_offset_default
 *(.vector_145)
                0x9d000250                . = ALIGN (0x4)
                0x00000258                __vector_offset_146 = DEFINED (__vector_dispatch_146)?(. - _ebase_address):__vector_offset_default
 *(.vector_146)
                0x9d000250                . = ALIGN (0x4)
                0x00000258                __vector_offset_147 = DEFINED (__vector_dispatch_147)?(. - _ebase_address):__vector_offset_default
 *(.vector_147)
                0x9d000250                . = ALIGN (0x4)
                0x00000258                __vector_offset_148 = DEFINED (__vector_dispatch_148)?(. - _ebase_address):__vector_offset_default
 *(.vector_148)
                0x9d000250                . = ALIGN (0x4)
                0x00000258                __vector_offset_149 = DEFINED (__vector_dispatch_149)?(. - _ebase_address):__vector_offset_default
 *(.vector_149)
                0x9d000250                . = ALIGN (0x4)
                0x00000258                __vector_offset_150 = DEFINED (__vector_dispatch_150)?(. - _ebase_address):__vector_offset_default
 *(.vector_150)
                0x9d000250                . = ALIGN (0x4)
                0x00000258                __vector_offset_151 = DEFINED (__vector_dispatch_151)?(. - _ebase_address):__vector_offset_default
 *(.vector_151)
                0x9d000250                . = ALIGN (0x4)
                0x00000258                __vector_offset_152 = DEFINED (__vector_dispatch_152)?(. - _ebase_address):__vector_offset_default
 *(.vector_152)
                0x9d000250                . = ALIGN (0x4)
                0x00000258                __vector_offset_153 = DEFINED (__vector_dispatch_153)?(. - _ebase_address):__vector_offset_default
 *(.vector_153)
                0x9d000250                . = ALIGN (0x4)
                0x00000258                __vector_offset_154 = DEFINED (__vector_dispatch_154)?(. - _ebase_address):__vector_offset_default
 *(.vector_154)
                0x9d000250                . = ALIGN (0x4)
                0x00000258                __vector_offset_155 = DEFINED (__vector_dispatch_155)?(. - _ebase_address):__vector_offset_default
 *(.vector_155)
                0x9d000250                . = ALIGN (0x4)
                0x00000258                __vector_offset_156 = DEFINED (__vector_dispatch_156)?(. - _ebase_address):__vector_offset_default
 *(.vector_156)
                0x9d000250                . = ALIGN (0x4)
                0x00000258                __vector_offset_157 = DEFINED (__vector_dispatch_157)?(. - _ebase_address):__vector_offset_default
 *(.vector_157)
                0x9d000250                . = ALIGN (0x4)
                0x00000258                __vector_offset_158 = DEFINED (__vector_dispatch_158)?(. - _ebase_address):__vector_offset_default
 *(.vector_158)
                0x9d000250                . = ALIGN (0x4)
                0x00000258                __vector_offset_159 = DEFINED (__vector_dispatch_159)?(. - _ebase_address):__vector_offset_default
 *(.vector_159)
                0x9d000250                . = ALIGN (0x4)
                0x00000258                __vector_offset_160 = DEFINED (__vector_dispatch_160)?(. - _ebase_address):__vector_offset_default
 *(.vector_160)
                0x9d000250                . = ALIGN (0x4)
                0x00000258                __vector_offset_161 = DEFINED (__vector_dispatch_161)?(. - _ebase_address):__vector_offset_default
 *(.vector_161)
                0x9d000250                . = ALIGN (0x4)
                0x00000258                __vector_offset_162 = DEFINED (__vector_dispatch_162)?(. - _ebase_address):__vector_offset_default
 *(.vector_162)
                0x9d000250                . = ALIGN (0x4)
                0x00000258                __vector_offset_163 = DEFINED (__vector_dispatch_163)?(. - _ebase_address):__vector_offset_default
 *(.vector_163)
                0x9d000250                . = ALIGN (0x4)
                0x00000258                __vector_offset_164 = DEFINED (__vector_dispatch_164)?(. - _ebase_address):__vector_offset_default
 *(.vector_164)
                0x9d000250                . = ALIGN (0x4)
                0x00000258                __vector_offset_165 = DEFINED (__vector_dispatch_165)?(. - _ebase_address):__vector_offset_default
 *(.vector_165)
                0x9d000250                . = ALIGN (0x4)
                0x00000258                __vector_offset_166 = DEFINED (__vector_dispatch_166)?(. - _ebase_address):__vector_offset_default
 *(.vector_166)
                0x9d000250                . = ALIGN (0x4)
                0x00000250                __vector_offset_167 = DEFINED (__vector_dispatch_167)?(. - _ebase_address):__vector_offset_default
 *(.vector_167)
 .vector_167    0x9d000250        0x8 build/default/debug/_ext/1688732426/system_interrupt.o
                0x9d000250                __vector_dispatch_167
                0x9d000258                . = ALIGN (0x4)
                0x00000258                __vector_offset_168 = DEFINED (__vector_dispatch_168)?(. - _ebase_address):__vector_offset_default
 *(.vector_168)
                0x9d000258                . = ALIGN (0x4)
                0x00000258                __vector_offset_169 = DEFINED (__vector_dispatch_169)?(. - _ebase_address):__vector_offset_default
 *(.vector_169)
                0x9d000258                . = ALIGN (0x4)
                0x00000258                __vector_offset_170 = DEFINED (__vector_dispatch_170)?(. - _ebase_address):__vector_offset_default
 *(.vector_170)
                0x9d000258                . = ALIGN (0x4)
                0x00000258                __vector_offset_171 = DEFINED (__vector_dispatch_171)?(. - _ebase_address):__vector_offset_default
 *(.vector_171)
                0x9d000258                . = ALIGN (0x4)
                0x00000258                __vector_offset_172 = DEFINED (__vector_dispatch_172)?(. - _ebase_address):__vector_offset_default
 *(.vector_172)
                0x9d000258                . = ALIGN (0x4)
                0x00000258                __vector_offset_173 = DEFINED (__vector_dispatch_173)?(. - _ebase_address):__vector_offset_default
 *(.vector_173)
                0x9d000258                . = ALIGN (0x4)
                0x00000258                __vector_offset_174 = DEFINED (__vector_dispatch_174)?(. - _ebase_address):__vector_offset_default
 *(.vector_174)
                0x9d000258                . = ALIGN (0x4)
                0x00000258                __vector_offset_175 = DEFINED (__vector_dispatch_175)?(. - _ebase_address):__vector_offset_default
 *(.vector_175)
                0x9d000258                . = ALIGN (0x4)
                0x00000258                __vector_offset_176 = DEFINED (__vector_dispatch_176)?(. - _ebase_address):__vector_offset_default
 *(.vector_176)
                0x9d000258                . = ALIGN (0x4)
                0x00000258                __vector_offset_177 = DEFINED (__vector_dispatch_177)?(. - _ebase_address):__vector_offset_default
 *(.vector_177)
                0x9d000258                . = ALIGN (0x4)
                0x00000258                __vector_offset_178 = DEFINED (__vector_dispatch_178)?(. - _ebase_address):__vector_offset_default
 *(.vector_178)
                0x9d000258                . = ALIGN (0x4)
                0x00000258                __vector_offset_179 = DEFINED (__vector_dispatch_179)?(. - _ebase_address):__vector_offset_default
 *(.vector_179)
                0x9d000258                . = ALIGN (0x4)
                0x00000258                __vector_offset_180 = DEFINED (__vector_dispatch_180)?(. - _ebase_address):__vector_offset_default
 *(.vector_180)
                0x9d000258                . = ALIGN (0x4)
                0x00000258                __vector_offset_181 = DEFINED (__vector_dispatch_181)?(. - _ebase_address):__vector_offset_default
 *(.vector_181)
                0x9d000258                . = ALIGN (0x4)
                0x00000258                __vector_offset_182 = DEFINED (__vector_dispatch_182)?(. - _ebase_address):__vector_offset_default
 *(.vector_182)
                0x9d000258                . = ALIGN (0x4)
                0x00000258                __vector_offset_183 = DEFINED (__vector_dispatch_183)?(. - _ebase_address):__vector_offset_default
 *(.vector_183)
                0x9d000258                . = ALIGN (0x4)
                0x00000258                __vector_offset_184 = DEFINED (__vector_dispatch_184)?(. - _ebase_address):__vector_offset_default
 *(.vector_184)
                0x9d000258                . = ALIGN (0x4)
                0x00000258                __vector_offset_185 = DEFINED (__vector_dispatch_185)?(. - _ebase_address):__vector_offset_default
 *(.vector_185)
                0x9d000258                . = ALIGN (0x4)
                0x00000258                __vector_offset_186 = DEFINED (__vector_dispatch_186)?(. - _ebase_address):__vector_offset_default
 *(.vector_186)
                0x9d000258                . = ALIGN (0x4)
                0x00000258                __vector_offset_187 = DEFINED (__vector_dispatch_187)?(. - _ebase_address):__vector_offset_default
 *(.vector_187)
                0x9d000258                . = ALIGN (0x4)
                0x00000258                __vector_offset_188 = DEFINED (__vector_dispatch_188)?(. - _ebase_address):__vector_offset_default
 *(.vector_188)
                0x9d000258                . = ALIGN (0x4)
                0x00000258                __vector_offset_189 = DEFINED (__vector_dispatch_189)?(. - _ebase_address):__vector_offset_default
 *(.vector_189)
                0x9d000258                . = ALIGN (0x4)
                0x00000258                __vector_offset_190 = DEFINED (__vector_dispatch_190)?(. - _ebase_address):__vector_offset_default
 *(.vector_190)
                0x9d000258                . = ALIGN (0x4)
                0x00000258                __vector_offset_191 = DEFINED (__vector_dispatch_191)?(. - _ebase_address):__vector_offset_default
 *(.vector_191)
                0x9d000258                . = ALIGN (0x4)
                0x00000258                __vector_offset_192 = DEFINED (__vector_dispatch_192)?(. - _ebase_address):__vector_offset_default
 *(.vector_192)
                0x9d000258                . = ALIGN (0x4)
                0x00000258                __vector_offset_193 = DEFINED (__vector_dispatch_193)?(. - _ebase_address):__vector_offset_default
 *(.vector_193)
                0x9d000258                . = ALIGN (0x4)
                0x00000258                __vector_offset_194 = DEFINED (__vector_dispatch_194)?(. - _ebase_address):__vector_offset_default
 *(.vector_194)
                0x9d000258                . = ALIGN (0x4)
                0x00000258                __vector_offset_195 = DEFINED (__vector_dispatch_195)?(. - _ebase_address):__vector_offset_default
 *(.vector_195)
                0x9d000258                . = ALIGN (0x4)
                0x00000258                __vector_offset_196 = DEFINED (__vector_dispatch_196)?(. - _ebase_address):__vector_offset_default
 *(.vector_196)
                0x9d000258                . = ALIGN (0x4)
                0x00000258                __vector_offset_197 = DEFINED (__vector_dispatch_197)?(. - _ebase_address):__vector_offset_default
 *(.vector_197)
                0x9d000258                . = ALIGN (0x4)
                0x00000258                __vector_offset_198 = DEFINED (__vector_dispatch_198)?(. - _ebase_address):__vector_offset_default
 *(.vector_198)
                0x9d000258                . = ALIGN (0x4)
                0x00000258                __vector_offset_199 = DEFINED (__vector_dispatch_199)?(. - _ebase_address):__vector_offset_default
 *(.vector_199)
                0x9d000258                . = ALIGN (0x4)
                0x00000258                __vector_offset_200 = DEFINED (__vector_dispatch_200)?(. - _ebase_address):__vector_offset_default
 *(.vector_200)
                0x9d000258                . = ALIGN (0x4)
                0x00000258                __vector_offset_201 = DEFINED (__vector_dispatch_201)?(. - _ebase_address):__vector_offset_default
 *(.vector_201)
                0x9d000258                . = ALIGN (0x4)
                0x00000258                __vector_offset_202 = DEFINED (__vector_dispatch_202)?(. - _ebase_address):__vector_offset_default
 *(.vector_202)
                0x9d000258                . = ALIGN (0x4)
                0x00000258                __vector_offset_203 = DEFINED (__vector_dispatch_203)?(. - _ebase_address):__vector_offset_default
 *(.vector_203)
                0x9d000258                . = ALIGN (0x4)
                0x00000258                __vector_offset_204 = DEFINED (__vector_dispatch_204)?(. - _ebase_address):__vector_offset_default
 *(.vector_204)
                0x9d000258                . = ALIGN (0x4)
                0x00000258                __vector_offset_205 = DEFINED (__vector_dispatch_205)?(. - _ebase_address):__vector_offset_default
 *(.vector_205)
                0x9d000258                . = ALIGN (0x4)
                0x00000258                __vector_offset_206 = DEFINED (__vector_dispatch_206)?(. - _ebase_address):__vector_offset_default
 *(.vector_206)
                0x9d000258                . = ALIGN (0x4)
                0x00000258                __vector_offset_207 = DEFINED (__vector_dispatch_207)?(. - _ebase_address):__vector_offset_default
 *(.vector_207)
                0x9d000258                . = ALIGN (0x4)
                0x00000258                __vector_offset_208 = DEFINED (__vector_dispatch_208)?(. - _ebase_address):__vector_offset_default
 *(.vector_208)
                0x9d000258                . = ALIGN (0x4)
                0x00000258                __vector_offset_209 = DEFINED (__vector_dispatch_209)?(. - _ebase_address):__vector_offset_default
 *(.vector_209)
                0x9d000258                . = ALIGN (0x4)
                0x00000258                __vector_offset_210 = DEFINED (__vector_dispatch_210)?(. - _ebase_address):__vector_offset_default
 *(.vector_210)
                0x9d000258                . = ALIGN (0x4)
                0x00000258                __vector_offset_211 = DEFINED (__vector_dispatch_211)?(. - _ebase_address):__vector_offset_default
 *(.vector_211)
                0x9d000258                . = ALIGN (0x4)
                0x00000258                __vector_offset_212 = DEFINED (__vector_dispatch_212)?(. - _ebase_address):__vector_offset_default
 *(.vector_212)
                0x9d000258                . = ALIGN (0x4)
                0x00000258                __vector_offset_213 = DEFINED (__vector_dispatch_213)?(. - _ebase_address):__vector_offset_default
 *(.vector_213)
                0x9d000258                . = ALIGN (0x4)
                0x00000258                __vector_offset_214 = DEFINED (__vector_dispatch_214)?(. - _ebase_address):__vector_offset_default
 *(.vector_214)
                0x9d000258                . = ALIGN (0x4)
                0x00000258                __vector_offset_215 = DEFINED (__vector_dispatch_215)?(. - _ebase_address):__vector_offset_default
 *(.vector_215)
                0x9d000258                . = ALIGN (0x4)
                0x00000258                __vector_offset_216 = DEFINED (__vector_dispatch_216)?(. - _ebase_address):__vector_offset_default
 *(.vector_216)
                0x9d000258                . = ALIGN (0x4)
                0x00000258                __vector_offset_217 = DEFINED (__vector_dispatch_217)?(. - _ebase_address):__vector_offset_default
 *(.vector_217)
                0x9d000258                . = ALIGN (0x4)
                0x00000258                __vector_offset_218 = DEFINED (__vector_dispatch_218)?(. - _ebase_address):__vector_offset_default
 *(.vector_218)
                0x9d000258                . = ALIGN (0x4)
                0x00000258                __vector_offset_219 = DEFINED (__vector_dispatch_219)?(. - _ebase_address):__vector_offset_default
 *(.vector_219)
                0x9d000258                . = ALIGN (0x4)
                0x00000258                __vector_offset_220 = DEFINED (__vector_dispatch_220)?(. - _ebase_address):__vector_offset_default
 *(.vector_220)
                0x9d000258                . = ALIGN (0x4)
                0x00000258                __vector_offset_221 = DEFINED (__vector_dispatch_221)?(. - _ebase_address):__vector_offset_default
 *(.vector_221)
                0x9d000258                . = ALIGN (0x4)
                0x00000258                __vector_offset_222 = DEFINED (__vector_dispatch_222)?(. - _ebase_address):__vector_offset_default
 *(.vector_222)
                0x9d000258                . = ALIGN (0x4)
                0x00000258                __vector_offset_223 = DEFINED (__vector_dispatch_223)?(. - _ebase_address):__vector_offset_default
 *(.vector_223)
                0x9d000258                . = ALIGN (0x4)
                0x00000258                __vector_offset_224 = DEFINED (__vector_dispatch_224)?(. - _ebase_address):__vector_offset_default
 *(.vector_224)
                0x9d000258                . = ALIGN (0x4)
                0x00000258                __vector_offset_225 = DEFINED (__vector_dispatch_225)?(. - _ebase_address):__vector_offset_default
 *(.vector_225)
                0x9d000258                . = ALIGN (0x4)
                0x00000258                __vector_offset_226 = DEFINED (__vector_dispatch_226)?(. - _ebase_address):__vector_offset_default
 *(.vector_226)
                0x9d000258                . = ALIGN (0x4)
                0x00000258                __vector_offset_227 = DEFINED (__vector_dispatch_227)?(. - _ebase_address):__vector_offset_default
 *(.vector_227)
                0x9d000258                . = ALIGN (0x4)
                0x00000258                __vector_offset_228 = DEFINED (__vector_dispatch_228)?(. - _ebase_address):__vector_offset_default
 *(.vector_228)
                0x9d000258                . = ALIGN (0x4)
                0x00000258                __vector_offset_229 = DEFINED (__vector_dispatch_229)?(. - _ebase_address):__vector_offset_default
 *(.vector_229)
                0x9d000258                . = ALIGN (0x4)
                0x00000258                __vector_offset_230 = DEFINED (__vector_dispatch_230)?(. - _ebase_address):__vector_offset_default
 *(.vector_230)
                0x9d000258                . = ALIGN (0x4)
                0x00000258                __vector_offset_231 = DEFINED (__vector_dispatch_231)?(. - _ebase_address):__vector_offset_default
 *(.vector_231)
                0x9d000258                . = ALIGN (0x4)
                0x00000258                __vector_offset_232 = DEFINED (__vector_dispatch_232)?(. - _ebase_address):__vector_offset_default
 *(.vector_232)
                0x9d000258                . = ALIGN (0x4)
                0x00000258                __vector_offset_233 = DEFINED (__vector_dispatch_233)?(. - _ebase_address):__vector_offset_default
 *(.vector_233)
                0x9d000258                . = ALIGN (0x4)
                0x00000258                __vector_offset_234 = DEFINED (__vector_dispatch_234)?(. - _ebase_address):__vector_offset_default
 *(.vector_234)
                0x9d000258                . = ALIGN (0x4)
                0x00000258                __vector_offset_235 = DEFINED (__vector_dispatch_235)?(. - _ebase_address):__vector_offset_default
 *(.vector_235)
                0x9d000258                . = ALIGN (0x4)
                0x00000258                __vector_offset_236 = DEFINED (__vector_dispatch_236)?(. - _ebase_address):__vector_offset_default
 *(.vector_236)
                0x9d000258                . = ALIGN (0x4)
                0x00000258                __vector_offset_237 = DEFINED (__vector_dispatch_237)?(. - _ebase_address):__vector_offset_default
 *(.vector_237)
                0x9d000258                . = ALIGN (0x4)
                0x00000258                __vector_offset_238 = DEFINED (__vector_dispatch_238)?(. - _ebase_address):__vector_offset_default
 *(.vector_238)
                0x9d000258                . = ALIGN (0x4)
                0x00000258                __vector_offset_239 = DEFINED (__vector_dispatch_239)?(. - _ebase_address):__vector_offset_default
 *(.vector_239)
                0x9d000258                . = ALIGN (0x4)
                0x00000258                __vector_offset_240 = DEFINED (__vector_dispatch_240)?(. - _ebase_address):__vector_offset_default
 *(.vector_240)
                0x9d000258                . = ALIGN (0x4)
                0x00000258                __vector_offset_241 = DEFINED (__vector_dispatch_241)?(. - _ebase_address):__vector_offset_default
 *(.vector_241)
                0x9d000258                . = ALIGN (0x4)
                0x00000258                __vector_offset_242 = DEFINED (__vector_dispatch_242)?(. - _ebase_address):__vector_offset_default
 *(.vector_242)
                0x9d000258                . = ALIGN (0x4)
                0x00000258                __vector_offset_243 = DEFINED (__vector_dispatch_243)?(. - _ebase_address):__vector_offset_default
 *(.vector_243)
                0x9d000258                . = ALIGN (0x4)
                0x00000258                __vector_offset_244 = DEFINED (__vector_dispatch_244)?(. - _ebase_address):__vector_offset_default
 *(.vector_244)
                0x9d000258                . = ALIGN (0x4)
                0x00000258                __vector_offset_245 = DEFINED (__vector_dispatch_245)?(. - _ebase_address):__vector_offset_default
 *(.vector_245)
                0x9d000258                . = ALIGN (0x4)
                0x00000258                __vector_offset_246 = DEFINED (__vector_dispatch_246)?(. - _ebase_address):__vector_offset_default
 *(.vector_246)
                0x9d000258                . = ALIGN (0x4)
                0x00000258                __vector_offset_247 = DEFINED (__vector_dispatch_247)?(. - _ebase_address):__vector_offset_default
 *(.vector_247)
                0x9d000258                . = ALIGN (0x4)
                0x00000258                __vector_offset_248 = DEFINED (__vector_dispatch_248)?(. - _ebase_address):__vector_offset_default
 *(.vector_248)
                0x9d000258                . = ALIGN (0x4)
                0x00000258                __vector_offset_249 = DEFINED (__vector_dispatch_249)?(. - _ebase_address):__vector_offset_default
 *(.vector_249)
                0x9d000258                . = ALIGN (0x4)
                0x00000258                __vector_offset_250 = DEFINED (__vector_dispatch_250)?(. - _ebase_address):__vector_offset_default
 *(.vector_250)
                0x9d000258                . = ALIGN (0x4)
                0x00000258                __vector_offset_251 = DEFINED (__vector_dispatch_251)?(. - _ebase_address):__vector_offset_default
 *(.vector_251)
                0x9d000258                . = ALIGN (0x4)
                0x00000258                __vector_offset_252 = DEFINED (__vector_dispatch_252)?(. - _ebase_address):__vector_offset_default
 *(.vector_252)
                0x9d000258                . = ALIGN (0x4)
                0x00000258                __vector_offset_253 = DEFINED (__vector_dispatch_253)?(. - _ebase_address):__vector_offset_default
 *(.vector_253)
                0x9d000258                . = ALIGN (0x4)
                0x00000258                __vector_offset_254 = DEFINED (__vector_dispatch_254)?(. - _ebase_address):__vector_offset_default
 *(.vector_254)
                0x9d000258                . = ALIGN (0x4)
                0x00000258                __vector_offset_255 = DEFINED (__vector_dispatch_255)?(. - _ebase_address):__vector_offset_default
 *(.vector_255)
                0x9d000258                . = ALIGN (0x4)
                0x00000258                __vector_offset_default = (. - _ebase_address)
 *(.vector_default)
 .vector_default
                0x9d000258       0x48 c:/program files/microchip/xc32/v2.50/bin/bin/../../lib/gcc/pic32mx/4.8.3/../../../../pic32mx/lib/fpu64\libpic32.a(defaultinterrupt.o)
                0x9d000258                _DefaultInterrupt

.startup
 *(.startup)

.text           0x9d0002a0        0x0
 *(.stub .gnu.linkonce.t.*)
 *(.text.*personality*)
 *(.mips16.fn.*)
 *(.mips16.call.*)
 *(.gnu.warning)
                0x9d0002a0                . = ALIGN (0x4)

.init           0x9d0002a0        0x0
 *crti.o(.init)
 *crtbegin.o(.init)
 *(EXCLUDE_FILE(*crtn.o *crtend?.o *crtend.o) .init)
 *crtend.o(.init)
 *crtn.o(.init)
                0x9d0002a0                . = ALIGN (0x4)

.fini           0x9d0002a0        0x0
 *(.fini)
                0x9d0002a0                . = ALIGN (0x4)

.preinit_array  0x9d0002a0        0x0
                0x9d0002a0                PROVIDE (__preinit_array_start, .)
 *(.preinit_array)
                0x9d0002a0                PROVIDE (__preinit_array_end, .)
                0x9d0002a0                . = ALIGN (0x4)

.init_array     0x9d0002a0        0x0
                0x9d0002a0                PROVIDE (__init_array_start, .)
 *(SORT(.init_array.*))
 *(.init_array)
                0x9d0002a0                PROVIDE (__init_array_end, .)
                0x9d0002a0                . = ALIGN (0x4)

.fini_array     0x9d0002a0        0x0
                0x9d0002a0                PROVIDE (__fini_array_start, .)
 *(SORT(.fini_array.*))
 *(.fini_array)
                0x9d0002a0                PROVIDE (__fini_array_end, .)
                0x9d0002a0                . = ALIGN (0x4)

.ctors          0x9d0002a0        0x0
 *crtbegin.o(.ctors)
 *crtbegin?.o(.ctors)
 *(EXCLUDE_FILE(*crtend?.o *crtend.o) .ctors)
 *(SORT(.ctors.*))
 *(.ctors)
                0x9d0002a0                . = ALIGN (0x4)

.dtors          0x9d0002a0        0x0
 *crtbegin.o(.dtors)
 *crtbegin?.o(.dtors)
 *(EXCLUDE_FILE(*crtend?.o *crtend.o) .dtors)
 *(SORT(.dtors.*))
 *(.dtors)
                0x9d0002a0                . = ALIGN (0x4)

.rodata         0x9d0002a0        0x0
 *(.gnu.linkonce.r.*)
 *(.rodata1)
                0x9d0002a0                . = ALIGN (0x4)

.sdata2         0x9fc004b0        0x0
 *(.sdata2 .sdata2.* .gnu.linkonce.s2.*)
                0x9fc004b0                . = ALIGN (0x4)

.sbss2          0x9fc004b0        0x0
 *(.sbss2 .sbss2.* .gnu.linkonce.sb2.*)
                0x9fc004b0                . = ALIGN (0x4)

.eh_frame_hdr
 *(.eh_frame_hdr)
                0x9fc004b0                . = ALIGN (0x4)

.eh_frame
 *(.eh_frame)
                0x9fc004b0                . = ALIGN (0x4)

.gcc_except_table
 *(.gcc_except_table .gcc_except_table.*)
                0x9fc004b0                . = ALIGN (0x4)

.dbg_data       0x80000380        0x0
                0x80000380                . = (. + DEFINED (_DEBUGGER)?0x200:0x0)
                0x80000380                . = (. + DEFINED (_DEBUGGER)?0x80:0x0)
                0x80000380                . = (. + DEFINED (_DEBUGGER)?0x100:0x0)

.jcr            0x80000380        0x0
 *(.jcr)
                0x80000380                . = ALIGN (0x4)

.eh_frame
 *(.eh_frame)
                0x80000380                . = ALIGN (0x4)

.gcc_except_table
 *(.gcc_except_table .gcc_except_table.*)
                0x80000380                . = ALIGN (0x4)

.persist        0x80000380        0x0
                0x80000380                _persist_begin = .
 *(.persist .persist.*)
                0x80000380                . = ALIGN (0x4)
                0x80000380                _persist_end = .

.data           0x80000380        0x0
 *(.gnu.linkonce.d.*)
 *(.data1)
                0x80000380                . = ALIGN (0x4)
                0x80000380                . = .
                0x80008370                _gp = (ALIGN (0x10) + 0x7ff0)

.got            0x80000380        0x0
 *(.got.plt)
 *(.got)
                0x80000380                . = ALIGN (0x4)

.sdata          0x80000380       0x30
                0x80000380                _sdata_begin = .
 *(.sdata .sdata.* .gnu.linkonce.s.*)
 .sdata         0x80000380        0x1 build/default/debug/_ext/1360937237/commands.o
                0x80000380                DepthStatus
 *fill*         0x80000381        0x3 
 .sdata         0x80000384        0x8 build/default/debug/_ext/1290481162/diskio.o
                0x80000384                gDiskCommandHandle
                0x80000388                gDiskCommandStatus
 .sdata         0x8000038c       0x24 c:/program files/microchip/xc32/v2.50/bin/bin/../../lib/gcc/pic32mx/4.8.3/../../../../pic32mx/lib/fpu64\libpic32.a(pic32_init_cache.o)
                0x8000038c                __pic32_icache_size
                0x80000390                __pic32_icache_linesize
                0x80000394                __pic32_icache_ways
                0x80000398                __pic32_dcache_size
                0x8000039c                __pic32_dcache_linesize
                0x800003a0                __pic32_dcache_ways
                0x800003a4                __pic32_scache_size
                0x800003a8                __pic32_scache_linesize
                0x800003ac                __pic32_scache_ways
                0x800003b0                . = ALIGN (0x4)
                0x800003b0                _sdata_end = .

.lit8
 *(.lit8)

.lit4
 *(.lit4)
                0x800003b0                . = ALIGN (0x4)
                0x800003b0                _data_end = .
                0x800003b0                _bss_begin = .

.sbss           0x800003b0       0x8c
                0x800003b0                _sbss_begin = .
 *(.dynsbss)
 *(.sbss .sbss.* .gnu.linkonce.sb.*)
 .sbss          0x800003b0        0x5 build/default/debug/_ext/1407244131/drv_tmr_static.o
 *fill*         0x800003b5        0x3 
 .sbss          0x800003b8        0xc build/default/debug/_ext/1688732426/system_exceptions.o
 .sbss          0x800003c4        0x1 build/default/debug/_ext/1360937237/crc.o
 *fill*         0x800003c5        0x1 
 .sbss          0x800003c6        0x2 build/default/debug/_ext/1360937237/statusst.o
 .sbss          0x800003c8        0x4 build/default/debug/_ext/1360937237/fifo.o
 .sbss          0x800003cc        0x1 build/default/debug/_ext/1360937237/gpt.o
 .sbss          0x800003cd        0x1 build/default/debug/_ext/1360937237/high_side.o
 *fill*         0x800003ce        0x2 
 .sbss          0x800003d0        0x4 build/default/debug/_ext/1360937237/nvm_fs.o
                0x800003d0                location
 .sbss          0x800003d4        0x4 build/default/debug/_ext/2062801281/CLASSB_CPUPCTest.o
 .sbss          0x800003d8        0x2 build/default/debug/_ext/274850301/drv_nvm.o
                0x800003d8                gDrvNVMBufferToken
 .sbss          0x800003da        0x1 build/default/debug/_ext/1415029366/drv_spi.o
 *fill*         0x800003db        0x1 
 .sbss          0x800003dc        0x8 build/default/debug/_ext/408548909/ff.o
 .sbss          0x800003e4        0x1 build/default/debug/_ext/419360567/usb_device_hid.o
 *(.scommon)
 *fill*         0x800003e5        0x3 
 .scommon       0x800003e8        0x8 build/default/debug/_ext/327000265/drv_usart_static.o
                0x800003e8                gDrvUSART0Obj
                0x800003ec                gDrvUSART1Obj
 .scommon       0x800003f0        0x8 build/default/debug/_ext/340578644/sys_devcon.o
                0x800003f0                sysDevconObj
 .scommon       0x800003f8        0x1 build/default/debug/_ext/1360937237/app.o
                0x800003f8                writeData
 *fill*         0x800003f9        0x3 
 .scommon       0x800003fc        0x8 build/default/debug/_ext/1360937237/switches.o
                0x800003fc                delay_count
                0x80000400                SW_COM
 .scommon       0x80000404        0x8 build/default/debug/_ext/1360937237/system_okay.o
                0x80000404                SYSTEM_OKAY
 .scommon       0x8000040c        0x1 build/default/debug/_ext/1360937237/gpt.o
                0x8000040c                count
 .scommon       0x8000040d        0x0 build/default/debug/_ext/1360937237/gamma.o
 .scommon       0x8000040d        0x0 build/default/debug/_ext/1360937237/nvm_fs.o
 *fill*         0x8000040d        0x3 
 .scommon       0x80000410        0xc build/default/debug/_ext/274850301/drv_nvm.o
                0x80000410                gNVMGeometryTable
                0x80000414                nvmClientObjMutex
                0x80000415                nvmBufObjMutex
                0x80000418                gDrvNVMMediaGeometry
 .scommon       0x8000041c       0x18 build/default/debug/_ext/746721678/sys_fs.o
                0x8000041c                gSYSFSObj
                0x80000424                gSysFsMutex
                0x80000428                gSYSFSCurrentMountPoint
                0x80000430                errorValue
 .scommon       0x80000434        0x2 build/default/debug/_ext/746721678/sys_fs_media_manager.o
                0x80000434                VolToPart
 *fill*         0x80000436        0x2 
 .scommon       0x80000438        0x2 build/default/debug/_ext/419360567/usb_device_hid.o
                0x80000438                gUSBDeviceHidCommonDataObj
                0x8000043a                _sbss_end = .
                0x8000043c                . = ALIGN (0x4)
 *fill*         0x8000043a        0x2 

.bss            0x80000440      0xdfc
 *(.dynbss)
 *(COMMON)
 COMMON         0x80000440       0x30 build/default/debug/_ext/1688732426/system_init.o
                0x80000440                sysObj
 COMMON         0x80000470      0x74c build/default/debug/_ext/1688732426/system_interrupt.o
                0x80000470                GPT
 COMMON         0x80000bbc       0x78 build/default/debug/_ext/1360937237/app.o
                0x80000bbc                nvmfsData
 COMMON         0x80000c34       0x18 build/default/debug/_ext/1360937237/switches.o
                0x80000c34                SWITCH
 COMMON         0x80000c4c       0x3c build/default/debug/_ext/1360937237/timers.o
                0x80000c4c                appData
                0x80000c70                TIMER
 COMMON         0x80000c88       0x10 build/default/debug/_ext/1360937237/commands.o
                0x80000c88                CMD
 COMMON         0x80000c98       0x20 build/default/debug/_ext/1360937237/fifo.o
                0x80000c98                TX_FIFO
                0x80000ca8                RX_FIFO
 COMMON         0x80000cb8        0xc build/default/debug/_ext/1360937237/commmodule.o
                0x80000cb8                COMM
 COMMON         0x80000cc4       0x2c build/default/debug/_ext/1360937237/test.o
                0x80000cc4                TEST_FLAG
 COMMON         0x80000cf0       0x2c build/default/debug/_ext/1360937237/high_side.o
                0x80000cf0                HIGH_SIDE
 *fill*         0x80000d1c        0x4 
 COMMON         0x80000d20       0x28 build/default/debug/_ext/1360937237/gamma.o
                0x80000d20                GAM
 COMMON         0x80000d48       0x40 build/default/debug/_ext/1360937237/report.o
                0x80000d48                REPORT
 COMMON         0x80000d88      0x13c build/default/debug/_ext/274850301/drv_nvm.o
                0x80000d88                gDrvNVMObj
                0x80000dbc                gDrvNVMBufferObject
                0x80000eac                gDrvNVMClientObj
 COMMON         0x80000ec4      0x188 build/default/debug/_ext/1329795486/drv_usbhs.o
                0x80000ec4                gDrvUSBEndpoints
                0x80000f14                gDrvUSBObj
 *fill*         0x8000104c        0x4 
 COMMON         0x80001050      0x134 build/default/debug/_ext/746721678/sys_fs.o
                0x80001050                gSYSFSFileObj
                0x80001160                gSYSFSDirObj
                0x80001170                gSYSFSMountPoint
 COMMON         0x80001184       0x48 build/default/debug/_ext/746721678/sys_fs_media_manager.o
                0x80001184                gSYSFSMediaObject
                0x800011b0                gSYSFSVolumeObject
 COMMON         0x800011cc       0x70 build/default/debug/_ext/419360567/usb_device_hid.o
                0x800011cc                gUSBDeviceHIDIRP
                0x80001214                gUsbDeviceHidInstance
                0x8000123c                . = ALIGN ((. != 0x0)?0x4:0x1)
                0x8000123c                . = ALIGN (0x4)
                0x8000123c                _end = .
                0x8000123c                _bss_end = .
                0x00080000                _bmxdudba_address = 0x80000
                0x00080000                _bmxdupba_address = 0x80000

/DISCARD/
 *(.pdr)
 *(.rel.dyn)
 *(.note.GNU-stack)
 *(.note.GNU-stack)
 *(.gnu_debuglink)
 *(.gnu.lto_*)
 *(.discard)

.gptab.sdata
 *(.gptab.data)
 *(.gptab.sdata)

.gptab.sbss
 *(.gptab.bss)
 *(.gptab.sbss)

.mdebug.abi32   0x00000000        0x0
 *(.mdebug.abi32)
 .mdebug.abi32  0x00000000        0x0 c:/program files/microchip/xc32/v2.50/bin/bin/../../lib/gcc/pic32mx/4.8.3/../../../../pic32mx/lib/fpu64\software-debug-break.o
 .mdebug.abi32  0x00000000        0x0 build/default/debug/_ext/977502197/drv_spi_tasks.o
 .mdebug.abi32  0x00000000        0x0 build/default/debug/_ext/977502197/drv_spi_api.o
 .mdebug.abi32  0x00000000        0x0 build/default/debug/_ext/977502197/drv_spi_master_ebm_tasks.o
 .mdebug.abi32  0x00000000        0x0 build/default/debug/_ext/1407244131/drv_tmr_static.o
 .mdebug.abi32  0x00000000        0x0 build/default/debug/_ext/1407244131/drv_tmr_mapping.o
 .mdebug.abi32  0x00000000        0x0 build/default/debug/_ext/327000265/drv_usart_mapping.o
 .mdebug.abi32  0x00000000        0x0 build/default/debug/_ext/327000265/drv_usart_static.o
 .mdebug.abi32  0x00000000        0x0 build/default/debug/_ext/327000265/drv_usart_static_byte_model.o
 .mdebug.abi32  0x00000000        0x0 build/default/debug/_ext/639803181/sys_clk_pic32mz.o
 .mdebug.abi32  0x00000000        0x0 build/default/debug/_ext/340578644/sys_devcon.o
 .mdebug.abi32  0x00000000        0x0 build/default/debug/_ext/340578644/sys_devcon_pic32mz.o
 .mdebug.abi32  0x00000000        0x0 build/default/debug/_ext/822048611/sys_ports_static.o
 .mdebug.abi32  0x00000000        0x0 build/default/debug/_ext/1688732426/system_init.o
 .mdebug.abi32  0x00000000        0x0 build/default/debug/_ext/1688732426/system_interrupt.o
 .mdebug.abi32  0x00000000        0x0 build/default/debug/_ext/1688732426/system_exceptions.o
 .mdebug.abi32  0x00000000        0x0 build/default/debug/_ext/1688732426/system_tasks.o
 .mdebug.abi32  0x00000000        0x0 build/default/debug/_ext/1360937237/app.o
 .mdebug.abi32  0x00000000        0x0 build/default/debug/_ext/1360937237/main.o
 .mdebug.abi32  0x00000000        0x0 build/default/debug/_ext/1360937237/switches.o
 .mdebug.abi32  0x00000000        0x0 build/default/debug/_ext/1360937237/timers.o
 .mdebug.abi32  0x00000000        0x0 build/default/debug/_ext/1360937237/crc.o
 .mdebug.abi32  0x00000000        0x0 build/default/debug/_ext/1360937237/commands.o
 .mdebug.abi32  0x00000000        0x0 build/default/debug/_ext/1360937237/statusst.o
 .mdebug.abi32  0x00000000        0x0 build/default/debug/_ext/1360937237/fifo.o
 .mdebug.abi32  0x00000000        0x0 build/default/debug/_ext/1360937237/commmodule.o
 .mdebug.abi32  0x00000000        0x0 build/default/debug/_ext/1360937237/document.o
 .mdebug.abi32  0x00000000        0x0 build/default/debug/_ext/1360937237/system_okay.o
 .mdebug.abi32  0x00000000        0x0 build/default/debug/_ext/1360937237/test.o
 .mdebug.abi32  0x00000000        0x0 build/default/debug/_ext/1360937237/gpt.o
 .mdebug.abi32  0x00000000        0x0 build/default/debug/_ext/1360937237/high_side.o
 .mdebug.abi32  0x00000000        0x0 build/default/debug/_ext/1360937237/gamma.o
 .mdebug.abi32  0x00000000        0x0 build/default/debug/_ext/1360937237/nvm_disk_images.o
 .mdebug.abi32  0x00000000        0x0 build/default/debug/_ext/1360937237/nvm_fs.o
 .mdebug.abi32  0x00000000        0x0 build/default/debug/_ext/1360937237/hid.o
 .mdebug.abi32  0x00000000        0x0 build/default/debug/_ext/1360937237/report.o
 .mdebug.abi32  0x00000000        0x0 build/default/debug/_ext/2062801281/CLASSB_CPUPCTest.o
 .mdebug.abi32  0x00000000        0x0 build/default/debug/_ext/2062801281/CLASSB_CRCbyte.o
 .mdebug.abi32  0x00000000        0x0 build/default/debug/_ext/2062801281/CLASSB_CRCFlashTest.o
 .mdebug.abi32  0x00000000        0x0 build/default/debug/_ext/2062801281/CLASSB_RAMCheckerBoardTest.o
 .mdebug.abi32  0x00000000        0x0 build/default/debug/_ext/2062801281/CLASSB_RAMMarchBTest.o
 .mdebug.abi32  0x00000000        0x0 build/default/debug/_ext/2062801281/CLASSB_RAMMarchCStackTest.o
 .mdebug.abi32  0x00000000        0x0 build/default/debug/_ext/2062801281/CLASSB_RAMMarchCTest.o
 .mdebug.abi32  0x00000000        0x0 build/default/debug/_ext/274850301/drv_nvm.o
 .mdebug.abi32  0x00000000        0x0 build/default/debug/_ext/274850301/drv_nvm_erasewrite.o
 .mdebug.abi32  0x00000000        0x0 build/default/debug/_ext/1415029366/drv_spi.o
 .mdebug.abi32  0x00000000        0x0 build/default/debug/_ext/1745438118/drv_spi_sys_queue_fifo.o
 .mdebug.abi32  0x00000000        0x0 build/default/debug/_ext/1329795486/drv_usbhs.o
 .mdebug.abi32  0x00000000        0x0 build/default/debug/_ext/1329795486/drv_usbhs_device.o
 .mdebug.abi32  0x00000000        0x0 build/default/debug/_ext/746721678/sys_fs.o
 .mdebug.abi32  0x00000000        0x0 build/default/debug/_ext/746721678/sys_fs_media_manager.o
 .mdebug.abi32  0x00000000        0x0 build/default/debug/_ext/408548909/ff.o
 .mdebug.abi32  0x00000000        0x0 build/default/debug/_ext/1290481162/diskio.o
 .mdebug.abi32  0x00000000        0x0 build/default/debug/_ext/2087805404/sys_int_pic32.o
 .mdebug.abi32  0x00000000        0x0 build/default/debug/_ext/945675698/sys_tmr.o
 .mdebug.abi32  0x00000000        0x0 build/default/debug/_ext/419360567/usb_device.o
 .mdebug.abi32  0x00000000        0x0 build/default/debug/_ext/419360567/usb_device_hid.o
 .mdebug.abi32  0x00000000        0x0 c:/program files/microchip/xc32/v2.50/bin/bin/../../lib/gcc/pic32mx/4.8.3/fpu64\libgcc.a(_udivdi3.o)
 .mdebug.abi32  0x00000000        0x0 c:/program files/microchip/xc32/v2.50/bin/bin/../../lib/gcc/pic32mx/4.8.3/../../../../pic32mx/lib/fpu64\libpic32.a(default-bootstrap-exception-handler.o)
 .mdebug.abi32  0x00000000        0x0 c:/program files/microchip/xc32/v2.50/bin/bin/../../lib/gcc/pic32mx/4.8.3/../../../../pic32mx/lib/fpu64\libpic32.a(default-on-reset.o)
 .mdebug.abi32  0x00000000        0x0 c:/program files/microchip/xc32/v2.50/bin/bin/../../lib/gcc/pic32mx/4.8.3/../../../../pic32mx/lib/fpu64\libpic32.a(default-on-bootstrap.o)
 .mdebug.abi32  0x00000000        0x0 c:/program files/microchip/xc32/v2.50/bin/bin/../../lib/gcc/pic32mx/4.8.3/../../../../pic32mx/lib/fpu64\libpic32.a(defaultinterrupt.o)
 .mdebug.abi32  0x00000000        0x0 c:/program files/microchip/xc32/v2.50/bin/bin/../../lib/gcc/pic32mx/4.8.3/../../../../pic32mx/lib/fpu64\libpic32.a(default-cache-err-exception-handler.o)
 .mdebug.abi32  0x00000000        0x0 c:/program files/microchip/xc32/v2.50/bin/bin/../../lib/gcc/pic32mx/4.8.3/../../../../pic32mx/lib/fpu64\libpic32.a(default-simple-tlb-refill-exception-handler.o)
 .mdebug.abi32  0x00000000        0x0 c:/program files/microchip/xc32/v2.50/bin/bin/../../lib/gcc/pic32mx/4.8.3/../../../../pic32mx/lib/fpu64\liblega-c.a(strncmp.o)
 .mdebug.abi32  0x00000000        0x0 c:/program files/microchip/xc32/v2.50/bin/bin/../../lib/gcc/pic32mx/4.8.3/../../../../pic32mx/lib/fpu64\liblega-c.a(strncpy.o)
 .mdebug.abi32  0x00000000        0x0 c:/program files/microchip/xc32/v2.50/bin/bin/../../lib/gcc/pic32mx/4.8.3/../../../../pic32mx/lib/fpu64\liblega-c.a(strchr.o)

.mdebug.abiN32
 *(.mdebug.abiN32)

.mdebug.abi64
 *(.mdebug.abi64)

.mdebug.abiO64
 *(.mdebug.abiO64)

.mdebug.eabi32
 *(.mdebug.eabi32)

.mdebug.eabi64
 *(.mdebug.eabi64)

.gcc_compiled_long32
 *(.gcc_compiled_long32)

.gcc_compiled_long64
 *(.gcc_compiled_long64)

.stab
 *(.stab)

.stabstr
 *(.stabstr)

.stab.excl
 *(.stab.excl)

.stab.exclstr
 *(.stab.exclstr)

.stab.index
 *(.stab.index)

.stab.indexstr
 *(.stab.indexstr)

.comment        0x00000000      0x18d
 *(.comment)
 .comment       0x00000000       0x3c c:/program files/microchip/xc32/v2.50/bin/bin/../../lib/gcc/pic32mx/4.8.3/../../../../pic32mx/lib/fpu64\software-debug-break.o
                                 0x3d (size before relaxing)
 .comment       0x00000000       0x3d build/default/debug/_ext/977502197/drv_spi_tasks.o
 .comment       0x00000000       0x3d build/default/debug/_ext/977502197/drv_spi_api.o
 .comment       0x00000000       0x3d build/default/debug/_ext/977502197/drv_spi_master_ebm_tasks.o
 .comment       0x00000000       0x3d build/default/debug/_ext/1407244131/drv_tmr_static.o
 .comment       0x00000000       0x3d build/default/debug/_ext/1407244131/drv_tmr_mapping.o
 .comment       0x00000000       0x3d build/default/debug/_ext/327000265/drv_usart_mapping.o
 .comment       0x00000000       0x3d build/default/debug/_ext/327000265/drv_usart_static.o
 .comment       0x00000000       0x3d build/default/debug/_ext/327000265/drv_usart_static_byte_model.o
 .comment       0x00000000       0x3d build/default/debug/_ext/639803181/sys_clk_pic32mz.o
 .comment       0x00000000       0x3d build/default/debug/_ext/340578644/sys_devcon.o
 .comment       0x00000000       0x3d build/default/debug/_ext/340578644/sys_devcon_pic32mz.o
 .comment       0x00000000       0x3d build/default/debug/_ext/822048611/sys_ports_static.o
 .comment       0x00000000       0x3d build/default/debug/_ext/1688732426/system_init.o
 .comment       0x00000000       0x3d build/default/debug/_ext/1688732426/system_interrupt.o
 .comment       0x00000000       0x3d build/default/debug/_ext/1688732426/system_exceptions.o
 .comment       0x00000000       0x3d build/default/debug/_ext/1688732426/system_tasks.o
 .comment       0x00000000       0x3d build/default/debug/_ext/1360937237/app.o
 .comment       0x00000000       0x3d build/default/debug/_ext/1360937237/main.o
 .comment       0x00000000       0x3d build/default/debug/_ext/1360937237/switches.o
 .comment       0x00000000       0x3d build/default/debug/_ext/1360937237/timers.o
 .comment       0x00000000       0x3d build/default/debug/_ext/1360937237/crc.o
 .comment       0x00000000       0x3d build/default/debug/_ext/1360937237/commands.o
 .comment       0x00000000       0x3d build/default/debug/_ext/1360937237/statusst.o
 .comment       0x00000000       0x3d build/default/debug/_ext/1360937237/fifo.o
 .comment       0x00000000       0x3d build/default/debug/_ext/1360937237/commmodule.o
 .comment       0x00000000       0x3d build/default/debug/_ext/1360937237/document.o
 .comment       0x00000000       0x3d build/default/debug/_ext/1360937237/system_okay.o
 .comment       0x00000000       0x3d build/default/debug/_ext/1360937237/test.o
 .comment       0x00000000       0x3d build/default/debug/_ext/1360937237/gpt.o
 .comment       0x00000000       0x3d build/default/debug/_ext/1360937237/high_side.o
 .comment       0x00000000       0x3d build/default/debug/_ext/1360937237/gamma.o
 .comment       0x00000000       0x3d build/default/debug/_ext/1360937237/nvm_disk_images.o
 .comment       0x00000000       0x3d build/default/debug/_ext/1360937237/nvm_fs.o
 .comment       0x00000000       0x3d build/default/debug/_ext/1360937237/hid.o
 .comment       0x00000000       0x3d build/default/debug/_ext/1360937237/report.o
 .comment       0x00000000       0x3d build/default/debug/_ext/2062801281/CLASSB_CPUPCTest.o
 .comment       0x00000000       0x3d build/default/debug/_ext/2062801281/CLASSB_CRCbyte.o
 .comment       0x00000000       0x3d build/default/debug/_ext/2062801281/CLASSB_CRCFlashTest.o
 .comment       0x00000000       0x3d build/default/debug/_ext/2062801281/CLASSB_RAMCheckerBoardTest.o
 .comment       0x00000000       0x3d build/default/debug/_ext/2062801281/CLASSB_RAMMarchBTest.o
 .comment       0x00000000       0x3d build/default/debug/_ext/2062801281/CLASSB_RAMMarchCStackTest.o
 .comment       0x00000000       0x3d build/default/debug/_ext/2062801281/CLASSB_RAMMarchCTest.o
 .comment       0x00000000       0x3d build/default/debug/_ext/274850301/drv_nvm.o
 .comment       0x00000000       0x3d build/default/debug/_ext/274850301/drv_nvm_erasewrite.o
 .comment       0x00000000       0x3d build/default/debug/_ext/1415029366/drv_spi.o
 .comment       0x00000000       0x3d build/default/debug/_ext/1745438118/drv_spi_sys_queue_fifo.o
 .comment       0x00000000       0x3d build/default/debug/_ext/1329795486/drv_usbhs.o
 .comment       0x00000000       0x3d build/default/debug/_ext/1329795486/drv_usbhs_device.o
 .comment       0x00000000       0x3d build/default/debug/_ext/746721678/sys_fs.o
 .comment       0x00000000       0x3d build/default/debug/_ext/746721678/sys_fs_media_manager.o
 .comment       0x00000000       0x3d build/default/debug/_ext/408548909/ff.o
 .comment       0x00000000       0x3d build/default/debug/_ext/1290481162/diskio.o
 .comment       0x00000000       0x3d build/default/debug/_ext/2087805404/sys_int_pic32.o
 .comment       0x00000000       0x3d build/default/debug/_ext/945675698/sys_tmr.o
 .comment       0x00000000       0x3d build/default/debug/_ext/419360567/usb_device.o
 .comment       0x00000000       0x3d build/default/debug/_ext/419360567/usb_device_hid.o
 .comment       0x00000000       0x3d c:/program files/microchip/xc32/v2.50/bin/bin/../../lib/gcc/pic32mx/4.8.3/fpu64\libgcc.a(_udivdi3.o)
 .comment       0x0000003c       0x18 c:/program files/microchip/xc32/v2.50/bin/bin/../../lib/gcc/pic32mx/4.8.3/../../../../pic32mx/lib/fpu64\libpic32.a(memcmp.o)
                                 0x19 (size before relaxing)
 .comment       0x00000054       0x18 c:/program files/microchip/xc32/v2.50/bin/bin/../../lib/gcc/pic32mx/4.8.3/../../../../pic32mx/lib/fpu64\libpic32.a(memset.o)
                                 0x19 (size before relaxing)
 .comment       0x0000006c       0x19 c:/program files/microchip/xc32/v2.50/bin/bin/../../lib/gcc/pic32mx/4.8.3/../../../../pic32mx/lib/fpu64\libpic32.a(strcmp.o)
                                 0x1a (size before relaxing)
 .comment       0x00000085       0x19 c:/program files/microchip/xc32/v2.50/bin/bin/../../lib/gcc/pic32mx/4.8.3/../../../../pic32mx/lib/fpu64\libpic32.a(strlen.o)
                                 0x1a (size before relaxing)
 .comment       0x00000000       0x3d c:/program files/microchip/xc32/v2.50/bin/bin/../../lib/gcc/pic32mx/4.8.3/../../../../pic32mx/lib/fpu64\libpic32.a(default-bootstrap-exception-handler.o)
 .comment       0x00000000       0x3d c:/program files/microchip/xc32/v2.50/bin/bin/../../lib/gcc/pic32mx/4.8.3/../../../../pic32mx/lib/fpu64\libpic32.a(default-on-reset.o)
 .comment       0x00000000       0x3d c:/program files/microchip/xc32/v2.50/bin/bin/../../lib/gcc/pic32mx/4.8.3/../../../../pic32mx/lib/fpu64\libpic32.a(default-on-bootstrap.o)
 .comment       0x00000000       0x3d c:/program files/microchip/xc32/v2.50/bin/bin/../../lib/gcc/pic32mx/4.8.3/../../../../pic32mx/lib/fpu64\libpic32.a(defaultinterrupt.o)
 .comment       0x00000000       0x3d c:/program files/microchip/xc32/v2.50/bin/bin/../../lib/gcc/pic32mx/4.8.3/../../../../pic32mx/lib/fpu64\libpic32.a(default-cache-err-exception-handler.o)
 .comment       0x00000000       0x3d c:/program files/microchip/xc32/v2.50/bin/bin/../../lib/gcc/pic32mx/4.8.3/../../../../pic32mx/lib/fpu64\libpic32.a(default-simple-tlb-refill-exception-handler.o)
 .comment       0x0000009e       0x50 c:/program files/microchip/xc32/v2.50/bin/bin/../../lib/gcc/pic32mx/4.8.3/../../../../pic32mx/lib/fpu64\liblega-c.a(strncmp.o)
                                 0x8d (size before relaxing)
 .comment       0x000000ee       0x50 c:/program files/microchip/xc32/v2.50/bin/bin/../../lib/gcc/pic32mx/4.8.3/../../../../pic32mx/lib/fpu64\liblega-c.a(strncpy.o)
                                 0x8d (size before relaxing)
 .comment       0x0000013e       0x4f c:/program files/microchip/xc32/v2.50/bin/bin/../../lib/gcc/pic32mx/4.8.3/../../../../pic32mx/lib/fpu64\liblega-c.a(strchr.o)
                                 0x8c (size before relaxing)

.debug
 *.elf(.debug)
 *(.debug)

.line
 *.elf(.line)
 *(.line)

.debug_srcinfo
 *.elf(.debug_srcinfo)
 *(.debug_srcinfo)

.debug_sfnames
 *.elf(.debug_sfnames)
 *(.debug_sfnames)

.debug_aranges  0x00000000     0x1ac0
 *.elf(.debug_aranges)
 *(.debug_aranges)
 .debug_aranges
                0x00000000       0x20 c:/program files/microchip/xc32/v2.50/bin/bin/../../lib/gcc/pic32mx/4.8.3/../../../../pic32mx/lib/fpu64\software-debug-break.o
 .debug_aranges
                0x00000020       0x28 build/default/debug/_ext/977502197/drv_spi_tasks.o
 .debug_aranges
                0x00000048       0x28 build/default/debug/_ext/977502197/drv_spi_api.o
 .debug_aranges
                0x00000070       0x38 build/default/debug/_ext/977502197/drv_spi_master_ebm_tasks.o
 .debug_aranges
                0x000000a8      0x2c8 build/default/debug/_ext/1407244131/drv_tmr_static.o
 .debug_aranges
                0x00000370       0xe8 build/default/debug/_ext/1407244131/drv_tmr_mapping.o
 .debug_aranges
                0x00000458       0xb0 build/default/debug/_ext/327000265/drv_usart_mapping.o
 .debug_aranges
                0x00000508       0xc8 build/default/debug/_ext/327000265/drv_usart_static.o
 .debug_aranges
                0x000005d0       0x78 build/default/debug/_ext/327000265/drv_usart_static_byte_model.o
 .debug_aranges
                0x00000648       0x50 build/default/debug/_ext/639803181/sys_clk_pic32mz.o
 .debug_aranges
                0x00000698       0x78 build/default/debug/_ext/340578644/sys_devcon.o
 .debug_aranges
                0x00000710       0xc8 build/default/debug/_ext/340578644/sys_devcon_pic32mz.o
 .debug_aranges
                0x000007d8      0x148 build/default/debug/_ext/822048611/sys_ports_static.o
 .debug_aranges
                0x00000920       0x20 build/default/debug/_ext/1688732426/system_init.o
 .debug_aranges
                0x00000940       0x70 build/default/debug/_ext/1688732426/system_interrupt.o
 .debug_aranges
                0x000009b0       0x20 build/default/debug/_ext/1688732426/system_exceptions.o
 .debug_aranges
                0x000009d0       0x20 build/default/debug/_ext/1688732426/system_tasks.o
 .debug_aranges
                0x000009f0       0x28 build/default/debug/_ext/1360937237/app.o
 .debug_aranges
                0x00000a18       0x20 build/default/debug/_ext/1360937237/main.o
 .debug_aranges
                0x00000a38       0x20 build/default/debug/_ext/1360937237/switches.o
 .debug_aranges
                0x00000a58       0x20 build/default/debug/_ext/1360937237/timers.o
 .debug_aranges
                0x00000a78       0x40 build/default/debug/_ext/1360937237/crc.o
 .debug_aranges
                0x00000ab8       0x28 build/default/debug/_ext/1360937237/commands.o
 .debug_aranges
                0x00000ae0       0x30 build/default/debug/_ext/1360937237/statusst.o
 .debug_aranges
                0x00000b10       0x38 build/default/debug/_ext/1360937237/fifo.o
 .debug_aranges
                0x00000b48       0x20 build/default/debug/_ext/1360937237/commmodule.o
 .debug_aranges
                0x00000b68       0x20 build/default/debug/_ext/1360937237/system_okay.o
 .debug_aranges
                0x00000b88       0x28 build/default/debug/_ext/1360937237/test.o
 .debug_aranges
                0x00000bb0       0x40 build/default/debug/_ext/1360937237/gpt.o
 .debug_aranges
                0x00000bf0       0x20 build/default/debug/_ext/1360937237/high_side.o
 .debug_aranges
                0x00000c10       0x40 build/default/debug/_ext/1360937237/gamma.o
 .debug_aranges
                0x00000c50       0x18 build/default/debug/_ext/1360937237/nvm_disk_images.o
 .debug_aranges
                0x00000c68       0x28 build/default/debug/_ext/1360937237/nvm_fs.o
 .debug_aranges
                0x00000c90       0x38 build/default/debug/_ext/1360937237/hid.o
 .debug_aranges
                0x00000cc8       0x20 build/default/debug/_ext/1360937237/report.o
 .debug_aranges
                0x00000ce8       0x20 build/default/debug/_ext/2062801281/CLASSB_CPURegistersTest.o
 .debug_aranges
                0x00000d08       0x50 build/default/debug/_ext/2062801281/CLASSB_CPUPCTest.o
 .debug_aranges
                0x00000d58       0x20 build/default/debug/_ext/2062801281/CLASSB_CRCbyte.o
 .debug_aranges
                0x00000d78       0x20 build/default/debug/_ext/2062801281/CLASSB_CRCFlashTest.o
 .debug_aranges
                0x00000d98       0x28 build/default/debug/_ext/2062801281/CLASSB_RAMCheckerBoardTest.o
 .debug_aranges
                0x00000dc0       0x28 build/default/debug/_ext/2062801281/CLASSB_RAMMarchBTest.o
 .debug_aranges
                0x00000de8       0x20 build/default/debug/_ext/2062801281/CLASSB_RAMMarchCStackTest.o
 .debug_aranges
                0x00000e08       0x40 build/default/debug/_ext/2062801281/CLASSB_RAMMarchCTest.o
 .debug_aranges
                0x00000e48       0xb8 build/default/debug/_ext/274850301/drv_nvm.o
 .debug_aranges
                0x00000f00       0x20 build/default/debug/_ext/274850301/drv_nvm_erasewrite.o
 .debug_aranges
                0x00000f20       0x98 build/default/debug/_ext/1415029366/drv_spi.o
 .debug_aranges
                0x00000fb8       0xd8 build/default/debug/_ext/1745438118/drv_spi_sys_queue_fifo.o
 .debug_aranges
                0x00001090       0x60 build/default/debug/_ext/1329795486/drv_usbhs.o
 .debug_aranges
                0x000010f0      0x100 build/default/debug/_ext/1329795486/drv_usbhs_device.o
 .debug_aranges
                0x000011f0      0x170 build/default/debug/_ext/746721678/sys_fs.o
 .debug_aranges
                0x00001360       0x98 build/default/debug/_ext/746721678/sys_fs_media_manager.o
 .debug_aranges
                0x000013f8      0x228 build/default/debug/_ext/408548909/ff.o
 .debug_aranges
                0x00001620       0x50 build/default/debug/_ext/1290481162/diskio.o
 .debug_aranges
                0x00001670       0x48 build/default/debug/_ext/2087805404/sys_int_pic32.o
 .debug_aranges
                0x000016b8       0xd0 build/default/debug/_ext/945675698/sys_tmr.o
 .debug_aranges
                0x00001788      0x1a0 build/default/debug/_ext/419360567/usb_device.o
 .debug_aranges
                0x00001928       0x68 build/default/debug/_ext/419360567/usb_device_hid.o
 .debug_aranges
                0x00001990       0x50 C:\Users\DAVID~1.DOB\AppData\Local\Temp\cchLGtk6.o
 .debug_aranges
                0x000019e0       0x20 c:/program files/microchip/xc32/v2.50/bin/bin/../../lib/gcc/pic32mx/4.8.3/fpu64\libgcc.a(_udivdi3.o)
 .debug_aranges
                0x00001a00       0x20 c:/program files/microchip/xc32/v2.50/bin/bin/../../lib/gcc/pic32mx/4.8.3/../../../../pic32mx/lib/fpu64\libpic32.a(default-bootstrap-exception-handler.o)
 .debug_aranges
                0x00001a20       0x20 c:/program files/microchip/xc32/v2.50/bin/bin/../../lib/gcc/pic32mx/4.8.3/../../../../pic32mx/lib/fpu64\libpic32.a(default-on-reset.o)
 .debug_aranges
                0x00001a40       0x20 c:/program files/microchip/xc32/v2.50/bin/bin/../../lib/gcc/pic32mx/4.8.3/../../../../pic32mx/lib/fpu64\libpic32.a(default-on-bootstrap.o)
 .debug_aranges
                0x00001a60       0x20 c:/program files/microchip/xc32/v2.50/bin/bin/../../lib/gcc/pic32mx/4.8.3/../../../../pic32mx/lib/fpu64\libpic32.a(defaultinterrupt.o)
 .debug_aranges
                0x00001a80       0x20 c:/program files/microchip/xc32/v2.50/bin/bin/../../lib/gcc/pic32mx/4.8.3/../../../../pic32mx/lib/fpu64\libpic32.a(default-cache-err-exception-handler.o)
 .debug_aranges
                0x00001aa0       0x20 c:/program files/microchip/xc32/v2.50/bin/bin/../../lib/gcc/pic32mx/4.8.3/../../../../pic32mx/lib/fpu64\libpic32.a(default-simple-tlb-refill-exception-handler.o)

.debug_pubnames
 *.elf(.debug_pubnames)
 *(.debug_pubnames)

.debug_info     0x00000000    0xb19f4
 *.elf(.debug_info .gnu.linkonce.wi.*)
 *(.debug_info .gnu.linkonce.wi.*)
 .debug_info    0x00000000       0xe3 c:/program files/microchip/xc32/v2.50/bin/bin/../../lib/gcc/pic32mx/4.8.3/../../../../pic32mx/lib/fpu64\software-debug-break.o
 .debug_info    0x000000e3     0x3b50 build/default/debug/_ext/977502197/drv_spi_tasks.o
 .debug_info    0x00003c33     0x5add build/default/debug/_ext/977502197/drv_spi_api.o
 .debug_info    0x00009710     0x3a2e build/default/debug/_ext/977502197/drv_spi_master_ebm_tasks.o
 .debug_info    0x0000d13e     0x933a build/default/debug/_ext/1407244131/drv_tmr_static.o
 .debug_info    0x00016478     0x250a build/default/debug/_ext/1407244131/drv_tmr_mapping.o
 .debug_info    0x00018982     0x21aa build/default/debug/_ext/327000265/drv_usart_mapping.o
 .debug_info    0x0001ab2c     0x5b04 build/default/debug/_ext/327000265/drv_usart_static.o
 .debug_info    0x00020630     0x1b92 build/default/debug/_ext/327000265/drv_usart_static_byte_model.o
 .debug_info    0x000221c2     0x2261 build/default/debug/_ext/639803181/sys_clk_pic32mz.o
 .debug_info    0x00024423     0x1783 build/default/debug/_ext/340578644/sys_devcon.o
 .debug_info    0x00025ba6     0x12ac build/default/debug/_ext/340578644/sys_devcon_pic32mz.o
 .debug_info    0x00026e52     0x9496 build/default/debug/_ext/822048611/sys_ports_static.o
 .debug_info    0x000302e8     0x8771 build/default/debug/_ext/1688732426/system_init.o
 .debug_info    0x00038a59     0x4bcd build/default/debug/_ext/1688732426/system_interrupt.o
 .debug_info    0x0003d626     0x1973 build/default/debug/_ext/1688732426/system_exceptions.o
 .debug_info    0x0003ef99     0x1075 build/default/debug/_ext/1688732426/system_tasks.o
 .debug_info    0x0004000e     0x2f92 build/default/debug/_ext/1360937237/app.o
 .debug_info    0x00042fa0     0x1e19 build/default/debug/_ext/1360937237/main.o
 .debug_info    0x00044db9     0x2e8b build/default/debug/_ext/1360937237/switches.o
 .debug_info    0x00047c44     0x22ec build/default/debug/_ext/1360937237/timers.o
 .debug_info    0x00049f30      0x349 build/default/debug/_ext/1360937237/crc.o
 .debug_info    0x0004a279     0x255f build/default/debug/_ext/1360937237/commands.o
 .debug_info    0x0004c7d8      0xf22 build/default/debug/_ext/1360937237/statusst.o
 .debug_info    0x0004d6fa      0x430 build/default/debug/_ext/1360937237/fifo.o
 .debug_info    0x0004db2a     0x2000 build/default/debug/_ext/1360937237/commmodule.o
 .debug_info    0x0004fb2a     0x3026 build/default/debug/_ext/1360937237/system_okay.o
 .debug_info    0x00052b50     0x2ea5 build/default/debug/_ext/1360937237/test.o
 .debug_info    0x000559f5     0x2c5e build/default/debug/_ext/1360937237/gpt.o
 .debug_info    0x00058653     0x21a0 build/default/debug/_ext/1360937237/high_side.o
 .debug_info    0x0005a7f3     0x25a0 build/default/debug/_ext/1360937237/gamma.o
 .debug_info    0x0005cd93     0x18d8 build/default/debug/_ext/1360937237/nvm_disk_images.o
 .debug_info    0x0005e66b     0x273d build/default/debug/_ext/1360937237/nvm_fs.o
 .debug_info    0x00060da8     0x2da5 build/default/debug/_ext/1360937237/hid.o
 .debug_info    0x00063b4d     0x1b95 build/default/debug/_ext/1360937237/report.o
 .debug_info    0x000656e2       0xcd build/default/debug/_ext/2062801281/CLASSB_CPURegistersTest.o
 .debug_info    0x000657af     0x1f4b build/default/debug/_ext/2062801281/CLASSB_CPUPCTest.o
 .debug_info    0x000676fa     0x1e43 build/default/debug/_ext/2062801281/CLASSB_CRCbyte.o
 .debug_info    0x0006953d     0x1e6d build/default/debug/_ext/2062801281/CLASSB_CRCFlashTest.o
 .debug_info    0x0006b3aa     0x1f97 build/default/debug/_ext/2062801281/CLASSB_RAMCheckerBoardTest.o
 .debug_info    0x0006d341     0x2156 build/default/debug/_ext/2062801281/CLASSB_RAMMarchBTest.o
 .debug_info    0x0006f497     0x2004 build/default/debug/_ext/2062801281/CLASSB_RAMMarchCStackTest.o
 .debug_info    0x0007149b     0x21cf build/default/debug/_ext/2062801281/CLASSB_RAMMarchCTest.o
 .debug_info    0x0007366a     0x4a0c build/default/debug/_ext/274850301/drv_nvm.o
 .debug_info    0x00078076     0x2995 build/default/debug/_ext/274850301/drv_nvm_erasewrite.o
 .debug_info    0x0007aa0b     0x6167 build/default/debug/_ext/1415029366/drv_spi.o
 .debug_info    0x00080b72     0x1ebf build/default/debug/_ext/1745438118/drv_spi_sys_queue_fifo.o
 .debug_info    0x00082a31     0x6dc0 build/default/debug/_ext/1329795486/drv_usbhs.o
 .debug_info    0x000897f1     0xc635 build/default/debug/_ext/1329795486/drv_usbhs_device.o
 .debug_info    0x00095e26     0x409d build/default/debug/_ext/746721678/sys_fs.o
 .debug_info    0x00099ec3     0x2216 build/default/debug/_ext/746721678/sys_fs_media_manager.o
 .debug_info    0x0009c0d9     0x54c9 build/default/debug/_ext/408548909/ff.o
 .debug_info    0x000a15a2      0xd4e build/default/debug/_ext/1290481162/diskio.o
 .debug_info    0x000a22f0     0x202f build/default/debug/_ext/2087805404/sys_int_pic32.o
 .debug_info    0x000a431f     0x2996 build/default/debug/_ext/945675698/sys_tmr.o
 .debug_info    0x000a6cb5     0x6c95 build/default/debug/_ext/419360567/usb_device.o
 .debug_info    0x000ad94a     0x330d build/default/debug/_ext/419360567/usb_device_hid.o
 .debug_info    0x000b0c57       0xd7 C:\Users\DAVID~1.DOB\AppData\Local\Temp\cchLGtk6.o
 .debug_info    0x000b0d2e      0x751 c:/program files/microchip/xc32/v2.50/bin/bin/../../lib/gcc/pic32mx/4.8.3/fpu64\libgcc.a(_udivdi3.o)
 .debug_info    0x000b147f       0xf4 c:/program files/microchip/xc32/v2.50/bin/bin/../../lib/gcc/pic32mx/4.8.3/../../../../pic32mx/lib/fpu64\libpic32.a(default-bootstrap-exception-handler.o)
 .debug_info    0x000b1573       0xcd c:/program files/microchip/xc32/v2.50/bin/bin/../../lib/gcc/pic32mx/4.8.3/../../../../pic32mx/lib/fpu64\libpic32.a(default-on-reset.o)
 .debug_info    0x000b1640       0xd5 c:/program files/microchip/xc32/v2.50/bin/bin/../../lib/gcc/pic32mx/4.8.3/../../../../pic32mx/lib/fpu64\libpic32.a(default-on-bootstrap.o)
 .debug_info    0x000b1715       0xe7 c:/program files/microchip/xc32/v2.50/bin/bin/../../lib/gcc/pic32mx/4.8.3/../../../../pic32mx/lib/fpu64\libpic32.a(defaultinterrupt.o)
 .debug_info    0x000b17fc       0xf4 c:/program files/microchip/xc32/v2.50/bin/bin/../../lib/gcc/pic32mx/4.8.3/../../../../pic32mx/lib/fpu64\libpic32.a(default-cache-err-exception-handler.o)
 .debug_info    0x000b18f0      0x104 c:/program files/microchip/xc32/v2.50/bin/bin/../../lib/gcc/pic32mx/4.8.3/../../../../pic32mx/lib/fpu64\libpic32.a(default-simple-tlb-refill-exception-handler.o)

.debug_abbrev   0x00000000     0x97b2
 *.elf(.debug_abbrev)
 *(.debug_abbrev)
 .debug_abbrev  0x00000000       0x28 c:/program files/microchip/xc32/v2.50/bin/bin/../../lib/gcc/pic32mx/4.8.3/../../../../pic32mx/lib/fpu64\software-debug-break.o
 .debug_abbrev  0x00000028      0x2be build/default/debug/_ext/977502197/drv_spi_tasks.o
 .debug_abbrev  0x000002e6      0x340 build/default/debug/_ext/977502197/drv_spi_api.o
 .debug_abbrev  0x00000626      0x27e build/default/debug/_ext/977502197/drv_spi_master_ebm_tasks.o
 .debug_abbrev  0x000008a4      0x530 build/default/debug/_ext/1407244131/drv_tmr_static.o
 .debug_abbrev  0x00000dd4      0x381 build/default/debug/_ext/1407244131/drv_tmr_mapping.o
 .debug_abbrev  0x00001155      0x261 build/default/debug/_ext/327000265/drv_usart_mapping.o
 .debug_abbrev  0x000013b6      0x4ab build/default/debug/_ext/327000265/drv_usart_static.o
 .debug_abbrev  0x00001861      0x234 build/default/debug/_ext/327000265/drv_usart_static_byte_model.o
 .debug_abbrev  0x00001a95      0x287 build/default/debug/_ext/639803181/sys_clk_pic32mz.o
 .debug_abbrev  0x00001d1c      0x303 build/default/debug/_ext/340578644/sys_devcon.o
 .debug_abbrev  0x0000201f      0x290 build/default/debug/_ext/340578644/sys_devcon_pic32mz.o
 .debug_abbrev  0x000022af      0x326 build/default/debug/_ext/822048611/sys_ports_static.o
 .debug_abbrev  0x000025d5      0x363 build/default/debug/_ext/1688732426/system_init.o
 .debug_abbrev  0x00002938      0x2d3 build/default/debug/_ext/1688732426/system_interrupt.o
 .debug_abbrev  0x00002c0b      0x109 build/default/debug/_ext/1688732426/system_exceptions.o
 .debug_abbrev  0x00002d14      0x12b build/default/debug/_ext/1688732426/system_tasks.o
 .debug_abbrev  0x00002e3f      0x194 build/default/debug/_ext/1360937237/app.o
 .debug_abbrev  0x00002fd3      0x174 build/default/debug/_ext/1360937237/main.o
 .debug_abbrev  0x00003147      0x2bf build/default/debug/_ext/1360937237/switches.o
 .debug_abbrev  0x00003406      0x1bf build/default/debug/_ext/1360937237/timers.o
 .debug_abbrev  0x000035c5      0x11e build/default/debug/_ext/1360937237/crc.o
 .debug_abbrev  0x000036e3      0x228 build/default/debug/_ext/1360937237/commands.o
 .debug_abbrev  0x0000390b      0x14d build/default/debug/_ext/1360937237/statusst.o
 .debug_abbrev  0x00003a58      0x145 build/default/debug/_ext/1360937237/fifo.o
 .debug_abbrev  0x00003b9d      0x1df build/default/debug/_ext/1360937237/commmodule.o
 .debug_abbrev  0x00003d7c      0x20b build/default/debug/_ext/1360937237/system_okay.o
 .debug_abbrev  0x00003f87      0x248 build/default/debug/_ext/1360937237/test.o
 .debug_abbrev  0x000041cf      0x323 build/default/debug/_ext/1360937237/gpt.o
 .debug_abbrev  0x000044f2      0x215 build/default/debug/_ext/1360937237/high_side.o
 .debug_abbrev  0x00004707      0x2b8 build/default/debug/_ext/1360937237/gamma.o
 .debug_abbrev  0x000049bf       0xe4 build/default/debug/_ext/1360937237/nvm_disk_images.o
 .debug_abbrev  0x00004aa3      0x1e0 build/default/debug/_ext/1360937237/nvm_fs.o
 .debug_abbrev  0x00004c83      0x2c7 build/default/debug/_ext/1360937237/hid.o
 .debug_abbrev  0x00004f4a      0x120 build/default/debug/_ext/1360937237/report.o
 .debug_abbrev  0x0000506a       0x14 build/default/debug/_ext/2062801281/CLASSB_CPURegistersTest.o
 .debug_abbrev  0x0000507e      0x17c build/default/debug/_ext/2062801281/CLASSB_CPUPCTest.o
 .debug_abbrev  0x000051fa      0x14c build/default/debug/_ext/2062801281/CLASSB_CRCbyte.o
 .debug_abbrev  0x00005346      0x156 build/default/debug/_ext/2062801281/CLASSB_CRCFlashTest.o
 .debug_abbrev  0x0000549c      0x1c7 build/default/debug/_ext/2062801281/CLASSB_RAMCheckerBoardTest.o
 .debug_abbrev  0x00005663      0x25a build/default/debug/_ext/2062801281/CLASSB_RAMMarchBTest.o
 .debug_abbrev  0x000058bd      0x1e4 build/default/debug/_ext/2062801281/CLASSB_RAMMarchCStackTest.o
 .debug_abbrev  0x00005aa1      0x2a9 build/default/debug/_ext/2062801281/CLASSB_RAMMarchCTest.o
 .debug_abbrev  0x00005d4a      0x459 build/default/debug/_ext/274850301/drv_nvm.o
 .debug_abbrev  0x000061a3      0x28f build/default/debug/_ext/274850301/drv_nvm_erasewrite.o
 .debug_abbrev  0x00006432      0x4fe build/default/debug/_ext/1415029366/drv_spi.o
 .debug_abbrev  0x00006930      0x385 build/default/debug/_ext/1745438118/drv_spi_sys_queue_fifo.o
 .debug_abbrev  0x00006cb5      0x4d2 build/default/debug/_ext/1329795486/drv_usbhs.o
 .debug_abbrev  0x00007187      0x55c build/default/debug/_ext/1329795486/drv_usbhs_device.o
 .debug_abbrev  0x000076e3      0x457 build/default/debug/_ext/746721678/sys_fs.o
 .debug_abbrev  0x00007b3a      0x460 build/default/debug/_ext/746721678/sys_fs_media_manager.o
 .debug_abbrev  0x00007f9a      0x3ac build/default/debug/_ext/408548909/ff.o
 .debug_abbrev  0x00008346      0x217 build/default/debug/_ext/1290481162/diskio.o
 .debug_abbrev  0x0000855d      0x23d build/default/debug/_ext/2087805404/sys_int_pic32.o
 .debug_abbrev  0x0000879a      0x536 build/default/debug/_ext/945675698/sys_tmr.o
 .debug_abbrev  0x00008cd0      0x463 build/default/debug/_ext/419360567/usb_device.o
 .debug_abbrev  0x00009133      0x445 build/default/debug/_ext/419360567/usb_device_hid.o
 .debug_abbrev  0x00009578       0x12 C:\Users\DAVID~1.DOB\AppData\Local\Temp\cchLGtk6.o
 .debug_abbrev  0x0000958a      0x138 c:/program files/microchip/xc32/v2.50/bin/bin/../../lib/gcc/pic32mx/4.8.3/fpu64\libgcc.a(_udivdi3.o)
 .debug_abbrev  0x000096c2       0x28 c:/program files/microchip/xc32/v2.50/bin/bin/../../lib/gcc/pic32mx/4.8.3/../../../../pic32mx/lib/fpu64\libpic32.a(default-bootstrap-exception-handler.o)
 .debug_abbrev  0x000096ea       0x28 c:/program files/microchip/xc32/v2.50/bin/bin/../../lib/gcc/pic32mx/4.8.3/../../../../pic32mx/lib/fpu64\libpic32.a(default-on-reset.o)
 .debug_abbrev  0x00009712       0x28 c:/program files/microchip/xc32/v2.50/bin/bin/../../lib/gcc/pic32mx/4.8.3/../../../../pic32mx/lib/fpu64\libpic32.a(default-on-bootstrap.o)
 .debug_abbrev  0x0000973a       0x28 c:/program files/microchip/xc32/v2.50/bin/bin/../../lib/gcc/pic32mx/4.8.3/../../../../pic32mx/lib/fpu64\libpic32.a(defaultinterrupt.o)
 .debug_abbrev  0x00009762       0x28 c:/program files/microchip/xc32/v2.50/bin/bin/../../lib/gcc/pic32mx/4.8.3/../../../../pic32mx/lib/fpu64\libpic32.a(default-cache-err-exception-handler.o)
 .debug_abbrev  0x0000978a       0x28 c:/program files/microchip/xc32/v2.50/bin/bin/../../lib/gcc/pic32mx/4.8.3/../../../../pic32mx/lib/fpu64\libpic32.a(default-simple-tlb-refill-exception-handler.o)

.debug_line     0x00000000    0x13b6d
 *.elf(.debug_line)
 *(.debug_line)
 .debug_line    0x00000000       0x99 c:/program files/microchip/xc32/v2.50/bin/bin/../../lib/gcc/pic32mx/4.8.3/../../../../pic32mx/lib/fpu64\software-debug-break.o
 .debug_line    0x00000099      0x58a build/default/debug/_ext/977502197/drv_spi_tasks.o
 .debug_line    0x00000623      0x82c build/default/debug/_ext/977502197/drv_spi_api.o
 .debug_line    0x00000e4f      0x585 build/default/debug/_ext/977502197/drv_spi_master_ebm_tasks.o
 .debug_line    0x000013d4      0xfd7 build/default/debug/_ext/1407244131/drv_tmr_static.o
 .debug_line    0x000023ab      0x5f9 build/default/debug/_ext/1407244131/drv_tmr_mapping.o
 .debug_line    0x000029a4      0x4b4 build/default/debug/_ext/327000265/drv_usart_mapping.o
 .debug_line    0x00002e58      0x989 build/default/debug/_ext/327000265/drv_usart_static.o
 .debug_line    0x000037e1      0x3bf build/default/debug/_ext/327000265/drv_usart_static_byte_model.o
 .debug_line    0x00003ba0      0x4f6 build/default/debug/_ext/639803181/sys_clk_pic32mz.o
 .debug_line    0x00004096      0x64e build/default/debug/_ext/340578644/sys_devcon.o
 .debug_line    0x000046e4      0x59a build/default/debug/_ext/340578644/sys_devcon_pic32mz.o
 .debug_line    0x00004c7e      0xb68 build/default/debug/_ext/822048611/sys_ports_static.o
 .debug_line    0x000057e6      0x9b5 build/default/debug/_ext/1688732426/system_init.o
 .debug_line    0x0000619b      0x88b build/default/debug/_ext/1688732426/system_interrupt.o
 .debug_line    0x00006a26      0x2c1 build/default/debug/_ext/1688732426/system_exceptions.o
 .debug_line    0x00006ce7      0x329 build/default/debug/_ext/1688732426/system_tasks.o
 .debug_line    0x00007010      0x364 build/default/debug/_ext/1360937237/app.o
 .debug_line    0x00007374      0x18b build/default/debug/_ext/1360937237/main.o
 .debug_line    0x000074ff      0x530 build/default/debug/_ext/1360937237/switches.o
 .debug_line    0x00007a2f      0x32d build/default/debug/_ext/1360937237/timers.o
 .debug_line    0x00007d5c      0x12a build/default/debug/_ext/1360937237/crc.o
 .debug_line    0x00007e86      0x40d build/default/debug/_ext/1360937237/commands.o
 .debug_line    0x00008293      0x16e build/default/debug/_ext/1360937237/statusst.o
 .debug_line    0x00008401      0x134 build/default/debug/_ext/1360937237/fifo.o
 .debug_line    0x00008535      0x335 build/default/debug/_ext/1360937237/commmodule.o
 .debug_line    0x0000886a        0x0 build/default/debug/_ext/1360937237/document.o
 .debug_line    0x0000886a      0x40e build/default/debug/_ext/1360937237/system_okay.o
 .debug_line    0x00008c78      0x361 build/default/debug/_ext/1360937237/test.o
 .debug_line    0x00008fd9      0x60e build/default/debug/_ext/1360937237/gpt.o
 .debug_line    0x000095e7      0x3d3 build/default/debug/_ext/1360937237/high_side.o
 .debug_line    0x000099ba      0x4f9 build/default/debug/_ext/1360937237/gamma.o
 .debug_line    0x00009eb3      0x294 build/default/debug/_ext/1360937237/nvm_disk_images.o
 .debug_line    0x0000a147      0x3e4 build/default/debug/_ext/1360937237/nvm_fs.o
 .debug_line    0x0000a52b      0x4d4 build/default/debug/_ext/1360937237/hid.o
 .debug_line    0x0000a9ff      0x2fe build/default/debug/_ext/1360937237/report.o
 .debug_line    0x0000acfd      0x4d0 build/default/debug/_ext/2062801281/CLASSB_CPURegistersTest.o
 .debug_line    0x0000b1cd      0x206 build/default/debug/_ext/2062801281/CLASSB_CPUPCTest.o
 .debug_line    0x0000b3d3      0x13a build/default/debug/_ext/2062801281/CLASSB_CRCbyte.o
 .debug_line    0x0000b50d      0x1a4 build/default/debug/_ext/2062801281/CLASSB_CRCFlashTest.o
 .debug_line    0x0000b6b1      0x217 build/default/debug/_ext/2062801281/CLASSB_RAMCheckerBoardTest.o
 .debug_line    0x0000b8c8      0x288 build/default/debug/_ext/2062801281/CLASSB_RAMMarchBTest.o
 .debug_line    0x0000bb50      0x1b9 build/default/debug/_ext/2062801281/CLASSB_RAMMarchCStackTest.o
 .debug_line    0x0000bd09      0x28e build/default/debug/_ext/2062801281/CLASSB_RAMMarchCTest.o
 .debug_line    0x0000bf97      0x917 build/default/debug/_ext/274850301/drv_nvm.o
 .debug_line    0x0000c8ae      0x42f build/default/debug/_ext/274850301/drv_nvm_erasewrite.o
 .debug_line    0x0000ccdd      0x920 build/default/debug/_ext/1415029366/drv_spi.o
 .debug_line    0x0000d5fd      0x51d build/default/debug/_ext/1745438118/drv_spi_sys_queue_fifo.o
 .debug_line    0x0000db1a      0x82f build/default/debug/_ext/1329795486/drv_usbhs.o
 .debug_line    0x0000e349     0x1281 build/default/debug/_ext/1329795486/drv_usbhs_device.o
 .debug_line    0x0000f5ca      0xd56 build/default/debug/_ext/746721678/sys_fs.o
 .debug_line    0x00010320      0x5ff build/default/debug/_ext/746721678/sys_fs_media_manager.o
 .debug_line    0x0001091f     0x10df build/default/debug/_ext/408548909/ff.o
 .debug_line    0x000119fe      0x22a build/default/debug/_ext/1290481162/diskio.o
 .debug_line    0x00011c28      0x2e5 build/default/debug/_ext/2087805404/sys_int_pic32.o
 .debug_line    0x00011f0d      0x663 build/default/debug/_ext/945675698/sys_tmr.o
 .debug_line    0x00012570      0xa2f build/default/debug/_ext/419360567/usb_device.o
 .debug_line    0x00012f9f      0x59d build/default/debug/_ext/419360567/usb_device_hid.o
 .debug_line    0x0001353c      0x171 C:\Users\DAVID~1.DOB\AppData\Local\Temp\cchLGtk6.o
 .debug_line    0x000136ad       0xf7 c:/program files/microchip/xc32/v2.50/bin/bin/../../lib/gcc/pic32mx/4.8.3/fpu64\libgcc.a(_udivdi3.o)
 .debug_line    0x000137a4       0xa6 c:/program files/microchip/xc32/v2.50/bin/bin/../../lib/gcc/pic32mx/4.8.3/../../../../pic32mx/lib/fpu64\libpic32.a(default-bootstrap-exception-handler.o)
 .debug_line    0x0001384a       0x93 c:/program files/microchip/xc32/v2.50/bin/bin/../../lib/gcc/pic32mx/4.8.3/../../../../pic32mx/lib/fpu64\libpic32.a(default-on-reset.o)
 .debug_line    0x000138dd       0x97 c:/program files/microchip/xc32/v2.50/bin/bin/../../lib/gcc/pic32mx/4.8.3/../../../../pic32mx/lib/fpu64\libpic32.a(default-on-bootstrap.o)
 .debug_line    0x00013974       0xa5 c:/program files/microchip/xc32/v2.50/bin/bin/../../lib/gcc/pic32mx/4.8.3/../../../../pic32mx/lib/fpu64\libpic32.a(defaultinterrupt.o)
 .debug_line    0x00013a19       0xa6 c:/program files/microchip/xc32/v2.50/bin/bin/../../lib/gcc/pic32mx/4.8.3/../../../../pic32mx/lib/fpu64\libpic32.a(default-cache-err-exception-handler.o)
 .debug_line    0x00013abf       0xae c:/program files/microchip/xc32/v2.50/bin/bin/../../lib/gcc/pic32mx/4.8.3/../../../../pic32mx/lib/fpu64\libpic32.a(default-simple-tlb-refill-exception-handler.o)

.debug_frame    0x00000000     0x4768
 *.elf(.debug_frame)
 *(.debug_frame)
 .debug_frame   0x00000000       0x20 c:/program files/microchip/xc32/v2.50/bin/bin/../../lib/gcc/pic32mx/4.8.3/../../../../pic32mx/lib/fpu64\software-debug-break.o
 .debug_frame   0x00000020       0x68 build/default/debug/_ext/977502197/drv_spi_tasks.o
 .debug_frame   0x00000088       0x44 build/default/debug/_ext/977502197/drv_spi_api.o
 .debug_frame   0x000000cc       0x50 build/default/debug/_ext/977502197/drv_spi_master_ebm_tasks.o
 .debug_frame   0x0000011c      0x630 build/default/debug/_ext/1407244131/drv_tmr_static.o
 .debug_frame   0x0000074c      0x2cc build/default/debug/_ext/1407244131/drv_tmr_mapping.o
 .debug_frame   0x00000a18      0x200 build/default/debug/_ext/327000265/drv_usart_mapping.o
 .debug_frame   0x00000c18      0x1a8 build/default/debug/_ext/327000265/drv_usart_static.o
 .debug_frame   0x00000dc0       0xd0 build/default/debug/_ext/327000265/drv_usart_static_byte_model.o
 .debug_frame   0x00000e90       0xa4 build/default/debug/_ext/639803181/sys_clk_pic32mz.o
 .debug_frame   0x00000f34       0xf4 build/default/debug/_ext/340578644/sys_devcon.o
 .debug_frame   0x00001028      0x278 build/default/debug/_ext/340578644/sys_devcon_pic32mz.o
 .debug_frame   0x000012a0      0x27c build/default/debug/_ext/822048611/sys_ports_static.o
 .debug_frame   0x0000151c       0x34 build/default/debug/_ext/1688732426/system_init.o
 .debug_frame   0x00001550      0x480 build/default/debug/_ext/1688732426/system_interrupt.o
 .debug_frame   0x000019d0       0x28 build/default/debug/_ext/1688732426/system_exceptions.o
 .debug_frame   0x000019f8       0x2c build/default/debug/_ext/1688732426/system_tasks.o
 .debug_frame   0x00001a24       0x48 build/default/debug/_ext/1360937237/app.o
 .debug_frame   0x00001a6c       0x28 build/default/debug/_ext/1360937237/main.o
 .debug_frame   0x00001a94       0x2c build/default/debug/_ext/1360937237/switches.o
 .debug_frame   0x00001ac0       0x38 build/default/debug/_ext/1360937237/timers.o
 .debug_frame   0x00001af8       0x80 build/default/debug/_ext/1360937237/crc.o
 .debug_frame   0x00001b78       0x50 build/default/debug/_ext/1360937237/commands.o
 .debug_frame   0x00001bc8       0x40 build/default/debug/_ext/1360937237/statusst.o
 .debug_frame   0x00001c08       0x50 build/default/debug/_ext/1360937237/fifo.o
 .debug_frame   0x00001c58       0x50 build/default/debug/_ext/1360937237/commmodule.o
 .debug_frame   0x00001ca8       0x2c build/default/debug/_ext/1360937237/system_okay.o
 .debug_frame   0x00001cd4       0x50 build/default/debug/_ext/1360937237/test.o
 .debug_frame   0x00001d24       0x88 build/default/debug/_ext/1360937237/gpt.o
 .debug_frame   0x00001dac       0x30 build/default/debug/_ext/1360937237/high_side.o
 .debug_frame   0x00001ddc       0x88 build/default/debug/_ext/1360937237/gamma.o
 .debug_frame   0x00001e64       0x40 build/default/debug/_ext/1360937237/nvm_fs.o
 .debug_frame   0x00001ea4       0x7c build/default/debug/_ext/1360937237/hid.o
 .debug_frame   0x00001f20       0x20 build/default/debug/_ext/1360937237/report.o
 .debug_frame   0x00001f40       0x8c build/default/debug/_ext/2062801281/CLASSB_CPUPCTest.o
 .debug_frame   0x00001fcc       0x20 build/default/debug/_ext/2062801281/CLASSB_CRCbyte.o
 .debug_frame   0x00001fec       0x2c build/default/debug/_ext/2062801281/CLASSB_CRCFlashTest.o
 .debug_frame   0x00002018       0x44 build/default/debug/_ext/2062801281/CLASSB_RAMCheckerBoardTest.o
 .debug_frame   0x0000205c       0x44 build/default/debug/_ext/2062801281/CLASSB_RAMMarchBTest.o
 .debug_frame   0x000020a0       0x38 build/default/debug/_ext/2062801281/CLASSB_RAMMarchCStackTest.o
 .debug_frame   0x000020d8       0x8c build/default/debug/_ext/2062801281/CLASSB_RAMMarchCTest.o
 .debug_frame   0x00002164      0x238 build/default/debug/_ext/274850301/drv_nvm.o
 .debug_frame   0x0000239c       0x3c build/default/debug/_ext/274850301/drv_nvm_erasewrite.o
 .debug_frame   0x000023d8      0x1dc build/default/debug/_ext/1415029366/drv_spi.o
 .debug_frame   0x000025b4      0x280 build/default/debug/_ext/1745438118/drv_spi_sys_queue_fifo.o
 .debug_frame   0x00002834       0xf0 build/default/debug/_ext/1329795486/drv_usbhs.o
 .debug_frame   0x00002924      0x384 build/default/debug/_ext/1329795486/drv_usbhs_device.o
 .debug_frame   0x00002ca8      0x510 build/default/debug/_ext/746721678/sys_fs.o
 .debug_frame   0x000031b8      0x1d8 build/default/debug/_ext/746721678/sys_fs_media_manager.o
 .debug_frame   0x00003390      0x850 build/default/debug/_ext/408548909/ff.o
 .debug_frame   0x00003be0       0xbc build/default/debug/_ext/1290481162/diskio.o
 .debug_frame   0x00003c9c       0xa0 build/default/debug/_ext/2087805404/sys_int_pic32.o
 .debug_frame   0x00003d3c      0x284 build/default/debug/_ext/945675698/sys_tmr.o
 .debug_frame   0x00003fc0      0x57c build/default/debug/_ext/419360567/usb_device.o
 .debug_frame   0x0000453c      0x128 build/default/debug/_ext/419360567/usb_device_hid.o
 .debug_frame   0x00004664       0x20 c:/program files/microchip/xc32/v2.50/bin/bin/../../lib/gcc/pic32mx/4.8.3/fpu64\libgcc.a(_udivdi3.o)
 .debug_frame   0x00004684       0x2c c:/program files/microchip/xc32/v2.50/bin/bin/../../lib/gcc/pic32mx/4.8.3/../../../../pic32mx/lib/fpu64\libpic32.a(default-bootstrap-exception-handler.o)
 .debug_frame   0x000046b0       0x20 c:/program files/microchip/xc32/v2.50/bin/bin/../../lib/gcc/pic32mx/4.8.3/../../../../pic32mx/lib/fpu64\libpic32.a(default-on-reset.o)
 .debug_frame   0x000046d0       0x20 c:/program files/microchip/xc32/v2.50/bin/bin/../../lib/gcc/pic32mx/4.8.3/../../../../pic32mx/lib/fpu64\libpic32.a(default-on-bootstrap.o)
 .debug_frame   0x000046f0       0x20 c:/program files/microchip/xc32/v2.50/bin/bin/../../lib/gcc/pic32mx/4.8.3/../../../../pic32mx/lib/fpu64\libpic32.a(defaultinterrupt.o)
 .debug_frame   0x00004710       0x2c c:/program files/microchip/xc32/v2.50/bin/bin/../../lib/gcc/pic32mx/4.8.3/../../../../pic32mx/lib/fpu64\libpic32.a(default-cache-err-exception-handler.o)
 .debug_frame   0x0000473c       0x2c c:/program files/microchip/xc32/v2.50/bin/bin/../../lib/gcc/pic32mx/4.8.3/../../../../pic32mx/lib/fpu64\libpic32.a(default-simple-tlb-refill-exception-handler.o)

.debug_str      0x00000000     0x16a1
 *.elf(.debug_str)
 *(.debug_str)
 .debug_str     0x00000000        0x0 c:/program files/microchip/xc32/v2.50/bin/bin/../../lib/gcc/pic32mx/4.8.3/../../../../pic32mx/lib/fpu64\software-debug-break.o
 .debug_str     0x00000000       0x76 build/default/debug/_ext/977502197/drv_spi_tasks.o
 .debug_str     0x00000076       0xe9 build/default/debug/_ext/977502197/drv_spi_api.o
 .debug_str     0x0000015f       0x68 build/default/debug/_ext/977502197/drv_spi_master_ebm_tasks.o
 .debug_str     0x000001c7       0xa5 build/default/debug/_ext/1407244131/drv_tmr_static.o
 .debug_str     0x0000026c        0xe build/default/debug/_ext/1407244131/drv_tmr_mapping.o
 .debug_str     0x0000027a       0x23 build/default/debug/_ext/327000265/drv_usart_mapping.o
 .debug_str     0x0000029d      0x101 build/default/debug/_ext/327000265/drv_usart_static.o
 .debug_str     0x0000039e       0x16 build/default/debug/_ext/327000265/drv_usart_static_byte_model.o
 .debug_str     0x000003b4       0x46 build/default/debug/_ext/639803181/sys_clk_pic32mz.o
 .debug_str     0x000003fa       0x16 build/default/debug/_ext/340578644/sys_devcon.o
 .debug_str     0x00000410       0x1a build/default/debug/_ext/340578644/sys_devcon_pic32mz.o
 .debug_str     0x0000042a       0xcd build/default/debug/_ext/822048611/sys_ports_static.o
 .debug_str     0x000004f7      0x12f build/default/debug/_ext/1688732426/system_init.o
 .debug_str     0x00000626       0x1b build/default/debug/_ext/1688732426/system_interrupt.o
 .debug_str     0x00000641        0x0 build/default/debug/_ext/1688732426/system_exceptions.o
 .debug_str     0x00000641        0x0 build/default/debug/_ext/1688732426/system_tasks.o
 .debug_str     0x00000641       0x2e build/default/debug/_ext/1360937237/app.o
 .debug_str     0x0000066f        0x0 build/default/debug/_ext/1360937237/main.o
 .debug_str     0x0000066f       0x15 build/default/debug/_ext/1360937237/switches.o
 .debug_str     0x00000684       0x1a build/default/debug/_ext/1360937237/timers.o
 .debug_str     0x0000069e        0x0 build/default/debug/_ext/1360937237/crc.o
 .debug_str     0x0000069e        0x6 build/default/debug/_ext/1360937237/commands.o
 .debug_str     0x000006a4        0x0 build/default/debug/_ext/1360937237/statusst.o
 .debug_str     0x000006a4        0x8 build/default/debug/_ext/1360937237/fifo.o
 .debug_str     0x000006ac        0x0 build/default/debug/_ext/1360937237/commmodule.o
 .debug_str     0x000006ac        0x0 build/default/debug/_ext/1360937237/document.o
 .debug_str     0x000006ac       0x2d build/default/debug/_ext/1360937237/system_okay.o
 .debug_str     0x000006d9       0x1d build/default/debug/_ext/1360937237/test.o
 .debug_str     0x000006f6       0x2d build/default/debug/_ext/1360937237/gpt.o
 .debug_str     0x00000723        0x0 build/default/debug/_ext/1360937237/high_side.o
 .debug_str     0x00000723       0x25 build/default/debug/_ext/1360937237/gamma.o
 .debug_str     0x00000748        0x0 build/default/debug/_ext/1360937237/nvm_disk_images.o
 .debug_str     0x00000748        0x0 build/default/debug/_ext/1360937237/nvm_fs.o
 .debug_str     0x00000748       0x49 build/default/debug/_ext/1360937237/hid.o
 .debug_str     0x00000791        0x0 build/default/debug/_ext/1360937237/report.o
 .debug_str     0x00000791        0x0 build/default/debug/_ext/2062801281/CLASSB_CPUPCTest.o
 .debug_str     0x00000791        0x0 build/default/debug/_ext/2062801281/CLASSB_CRCbyte.o
 .debug_str     0x00000791        0x0 build/default/debug/_ext/2062801281/CLASSB_CRCFlashTest.o
 .debug_str     0x00000791        0xc build/default/debug/_ext/2062801281/CLASSB_RAMCheckerBoardTest.o
 .debug_str     0x0000079d       0x22 build/default/debug/_ext/2062801281/CLASSB_RAMMarchBTest.o
 .debug_str     0x000007bf        0x0 build/default/debug/_ext/2062801281/CLASSB_RAMMarchCStackTest.o
 .debug_str     0x000007bf       0x3a build/default/debug/_ext/2062801281/CLASSB_RAMMarchCTest.o
 .debug_str     0x000007f9       0xe0 build/default/debug/_ext/274850301/drv_nvm.o
 .debug_str     0x000008d9       0x18 build/default/debug/_ext/274850301/drv_nvm_erasewrite.o
 .debug_str     0x000008f1      0x178 build/default/debug/_ext/1415029366/drv_spi.o
 .debug_str     0x00000a69      0x151 build/default/debug/_ext/1745438118/drv_spi_sys_queue_fifo.o
 .debug_str     0x00000bba      0x18e build/default/debug/_ext/1329795486/drv_usbhs.o
 .debug_str     0x00000d48      0x355 build/default/debug/_ext/1329795486/drv_usbhs_device.o
 .debug_str     0x0000109d       0xc1 build/default/debug/_ext/746721678/sys_fs.o
 .debug_str     0x0000115e       0xd2 build/default/debug/_ext/746721678/sys_fs_media_manager.o
 .debug_str     0x00001230       0x23 build/default/debug/_ext/408548909/ff.o
 .debug_str     0x00001253       0x16 build/default/debug/_ext/1290481162/diskio.o
 .debug_str     0x00001269       0x1d build/default/debug/_ext/2087805404/sys_int_pic32.o
 .debug_str     0x00001286       0x7d build/default/debug/_ext/945675698/sys_tmr.o
 .debug_str     0x00001303      0x2d7 build/default/debug/_ext/419360567/usb_device.o
 .debug_str     0x000015da       0xc7 build/default/debug/_ext/419360567/usb_device_hid.o
 .debug_str     0x000016a1        0x0 c:/program files/microchip/xc32/v2.50/bin/bin/../../lib/gcc/pic32mx/4.8.3/fpu64\libgcc.a(_udivdi3.o)
 .debug_str     0x000016a1        0x0 c:/program files/microchip/xc32/v2.50/bin/bin/../../lib/gcc/pic32mx/4.8.3/../../../../pic32mx/lib/fpu64\libpic32.a(default-bootstrap-exception-handler.o)
 .debug_str     0x000016a1        0x0 c:/program files/microchip/xc32/v2.50/bin/bin/../../lib/gcc/pic32mx/4.8.3/../../../../pic32mx/lib/fpu64\libpic32.a(default-on-reset.o)
 .debug_str     0x000016a1        0x0 c:/program files/microchip/xc32/v2.50/bin/bin/../../lib/gcc/pic32mx/4.8.3/../../../../pic32mx/lib/fpu64\libpic32.a(default-on-bootstrap.o)
 .debug_str     0x000016a1        0x0 c:/program files/microchip/xc32/v2.50/bin/bin/../../lib/gcc/pic32mx/4.8.3/../../../../pic32mx/lib/fpu64\libpic32.a(defaultinterrupt.o)
 .debug_str     0x000016a1        0x0 c:/program files/microchip/xc32/v2.50/bin/bin/../../lib/gcc/pic32mx/4.8.3/../../../../pic32mx/lib/fpu64\libpic32.a(default-cache-err-exception-handler.o)
 .debug_str     0x000016a1        0x0 c:/program files/microchip/xc32/v2.50/bin/bin/../../lib/gcc/pic32mx/4.8.3/../../../../pic32mx/lib/fpu64\libpic32.a(default-simple-tlb-refill-exception-handler.o)

.debug_loc      0x00000000    0x21bcc
 *.elf(.debug_loc)
 *(.debug_loc)
 .debug_loc     0x00000000      0x78a build/default/debug/_ext/977502197/drv_spi_tasks.o
 .debug_loc     0x0000078a      0x9fe build/default/debug/_ext/977502197/drv_spi_api.o
 .debug_loc     0x00001188      0x5f7 build/default/debug/_ext/977502197/drv_spi_master_ebm_tasks.o
 .debug_loc     0x0000177f     0x108b build/default/debug/_ext/1407244131/drv_tmr_static.o
 .debug_loc     0x0000280a      0xc54 build/default/debug/_ext/1407244131/drv_tmr_mapping.o
 .debug_loc     0x0000345e      0x9af build/default/debug/_ext/327000265/drv_usart_mapping.o
 .debug_loc     0x00003e0d      0x86a build/default/debug/_ext/327000265/drv_usart_static.o
 .debug_loc     0x00004677       0x26 build/default/debug/_ext/327000265/drv_usart_static_byte_model.o
 .debug_loc     0x0000469d      0x15b build/default/debug/_ext/639803181/sys_clk_pic32mz.o
 .debug_loc     0x000047f8      0x174 build/default/debug/_ext/340578644/sys_devcon.o
 .debug_loc     0x0000496c      0x7c5 build/default/debug/_ext/340578644/sys_devcon_pic32mz.o
 .debug_loc     0x00005131      0x7fa build/default/debug/_ext/822048611/sys_ports_static.o
 .debug_loc     0x0000592b       0x4d build/default/debug/_ext/1688732426/system_init.o
 .debug_loc     0x00005978      0x31c build/default/debug/_ext/1688732426/system_interrupt.o
 .debug_loc     0x00005c94       0x20 build/default/debug/_ext/1688732426/system_exceptions.o
 .debug_loc     0x00005cb4       0x2c build/default/debug/_ext/1688732426/system_tasks.o
 .debug_loc     0x00005ce0       0x58 build/default/debug/_ext/1360937237/app.o
 .debug_loc     0x00005d38       0x20 build/default/debug/_ext/1360937237/main.o
 .debug_loc     0x00005d58      0x777 build/default/debug/_ext/1360937237/switches.o
 .debug_loc     0x000064cf       0x44 build/default/debug/_ext/1360937237/timers.o
 .debug_loc     0x00006513      0x1bb build/default/debug/_ext/1360937237/crc.o
 .debug_loc     0x000066ce       0x98 build/default/debug/_ext/1360937237/commands.o
 .debug_loc     0x00006766       0x61 build/default/debug/_ext/1360937237/statusst.o
 .debug_loc     0x000067c7       0x65 build/default/debug/_ext/1360937237/fifo.o
 .debug_loc     0x0000682c       0x6d build/default/debug/_ext/1360937237/commmodule.o
 .debug_loc     0x00006899       0xa4 build/default/debug/_ext/1360937237/system_okay.o
 .debug_loc     0x0000693d       0xd8 build/default/debug/_ext/1360937237/test.o
 .debug_loc     0x00006a15      0x1b6 build/default/debug/_ext/1360937237/gpt.o
 .debug_loc     0x00006bcb       0x2c build/default/debug/_ext/1360937237/high_side.o
 .debug_loc     0x00006bf7       0xa4 build/default/debug/_ext/1360937237/gamma.o
 .debug_loc     0x00006c9b       0x2c build/default/debug/_ext/1360937237/nvm_fs.o
 .debug_loc     0x00006cc7      0x261 build/default/debug/_ext/1360937237/hid.o
 .debug_loc     0x00006f28       0x56 build/default/debug/_ext/2062801281/CLASSB_CPUPCTest.o
 .debug_loc     0x00006f7e       0xfc build/default/debug/_ext/2062801281/CLASSB_CRCbyte.o
 .debug_loc     0x0000707a       0xc6 build/default/debug/_ext/2062801281/CLASSB_CRCFlashTest.o
 .debug_loc     0x00007140      0x2c5 build/default/debug/_ext/2062801281/CLASSB_RAMCheckerBoardTest.o
 .debug_loc     0x00007405      0x5bf build/default/debug/_ext/2062801281/CLASSB_RAMMarchBTest.o
 .debug_loc     0x000079c4       0xdc build/default/debug/_ext/2062801281/CLASSB_RAMMarchCStackTest.o
 .debug_loc     0x00007aa0      0x64b build/default/debug/_ext/2062801281/CLASSB_RAMMarchCTest.o
 .debug_loc     0x000080eb     0x13d5 build/default/debug/_ext/274850301/drv_nvm.o
 .debug_loc     0x000094c0      0x2ab build/default/debug/_ext/274850301/drv_nvm_erasewrite.o
 .debug_loc     0x0000976b     0x1578 build/default/debug/_ext/1415029366/drv_spi.o
 .debug_loc     0x0000ace3      0xf86 build/default/debug/_ext/1745438118/drv_spi_sys_queue_fifo.o
 .debug_loc     0x0000bc69      0xb36 build/default/debug/_ext/1329795486/drv_usbhs.o
 .debug_loc     0x0000c79f     0x47d4 build/default/debug/_ext/1329795486/drv_usbhs_device.o
 .debug_loc     0x00010f73     0x396b build/default/debug/_ext/746721678/sys_fs.o
 .debug_loc     0x000148de      0xec2 build/default/debug/_ext/746721678/sys_fs_media_manager.o
 .debug_loc     0x000157a0     0x6dfb build/default/debug/_ext/408548909/ff.o
 .debug_loc     0x0001c59b      0x312 build/default/debug/_ext/1290481162/diskio.o
 .debug_loc     0x0001c8ad      0x12c build/default/debug/_ext/2087805404/sys_int_pic32.o
 .debug_loc     0x0001c9d9     0x1114 build/default/debug/_ext/945675698/sys_tmr.o
 .debug_loc     0x0001daed     0x2745 build/default/debug/_ext/419360567/usb_device.o
 .debug_loc     0x00020232      0xeac build/default/debug/_ext/419360567/usb_device_hid.o
 .debug_loc     0x000210de      0xa6a c:/program files/microchip/xc32/v2.50/bin/bin/../../lib/gcc/pic32mx/4.8.3/fpu64\libgcc.a(_udivdi3.o)
 .debug_loc     0x00021b48       0x2c c:/program files/microchip/xc32/v2.50/bin/bin/../../lib/gcc/pic32mx/4.8.3/../../../../pic32mx/lib/fpu64\libpic32.a(default-bootstrap-exception-handler.o)
 .debug_loc     0x00021b74       0x2c c:/program files/microchip/xc32/v2.50/bin/bin/../../lib/gcc/pic32mx/4.8.3/../../../../pic32mx/lib/fpu64\libpic32.a(default-cache-err-exception-handler.o)
 .debug_loc     0x00021ba0       0x2c c:/program files/microchip/xc32/v2.50/bin/bin/../../lib/gcc/pic32mx/4.8.3/../../../../pic32mx/lib/fpu64\libpic32.a(default-simple-tlb-refill-exception-handler.o)

.debug_macinfo
 *.elf(.debug_macinfo)
 *(.debug_macinfo)

.debug_weaknames
 *.elf(.debug_weaknames)
 *(.debug_weaknames)

.debug_funcnames
 *.elf(.debug_funcnames)
 *(.debug_funcnames)

.debug_typenames
 *.elf(.debug_typenames)
 *(.debug_typenames)

.debug_varnames
 *.elf(.debug_varnames)
 *(.debug_varnames)

.debug_pubtypes
 *.elf(.debug_pubtypes)
 *(.debug_pubtypes)

.debug_ranges   0x00000000     0x2000
 *.elf(.debug_ranges)
 *(.debug_ranges)
 .debug_ranges  0x00000000       0x10 c:/program files/microchip/xc32/v2.50/bin/bin/../../lib/gcc/pic32mx/4.8.3/../../../../pic32mx/lib/fpu64\software-debug-break.o
 .debug_ranges  0x00000010       0xe8 build/default/debug/_ext/977502197/drv_spi_tasks.o
 .debug_ranges  0x000000f8       0x18 build/default/debug/_ext/977502197/drv_spi_api.o
 .debug_ranges  0x00000110       0x28 build/default/debug/_ext/977502197/drv_spi_master_ebm_tasks.o
 .debug_ranges  0x00000138      0x2f0 build/default/debug/_ext/1407244131/drv_tmr_static.o
 .debug_ranges  0x00000428       0xd8 build/default/debug/_ext/1407244131/drv_tmr_mapping.o
 .debug_ranges  0x00000500       0xa0 build/default/debug/_ext/327000265/drv_usart_mapping.o
 .debug_ranges  0x000005a0      0x118 build/default/debug/_ext/327000265/drv_usart_static.o
 .debug_ranges  0x000006b8       0x68 build/default/debug/_ext/327000265/drv_usart_static_byte_model.o
 .debug_ranges  0x00000720       0x40 build/default/debug/_ext/639803181/sys_clk_pic32mz.o
 .debug_ranges  0x00000760       0x68 build/default/debug/_ext/340578644/sys_devcon.o
 .debug_ranges  0x000007c8       0xd8 build/default/debug/_ext/340578644/sys_devcon_pic32mz.o
 .debug_ranges  0x000008a0      0x138 build/default/debug/_ext/822048611/sys_ports_static.o
 .debug_ranges  0x000009d8       0x10 build/default/debug/_ext/1688732426/system_init.o
 .debug_ranges  0x000009e8       0x60 build/default/debug/_ext/1688732426/system_interrupt.o
 .debug_ranges  0x00000a48       0x10 build/default/debug/_ext/1688732426/system_exceptions.o
 .debug_ranges  0x00000a58       0x10 build/default/debug/_ext/1688732426/system_tasks.o
 .debug_ranges  0x00000a68       0x18 build/default/debug/_ext/1360937237/app.o
 .debug_ranges  0x00000a80       0x10 build/default/debug/_ext/1360937237/main.o
 .debug_ranges  0x00000a90       0x78 build/default/debug/_ext/1360937237/switches.o
 .debug_ranges  0x00000b08       0x10 build/default/debug/_ext/1360937237/timers.o
 .debug_ranges  0x00000b18       0x30 build/default/debug/_ext/1360937237/crc.o
 .debug_ranges  0x00000b48       0x98 build/default/debug/_ext/1360937237/commands.o
 .debug_ranges  0x00000be0       0x20 build/default/debug/_ext/1360937237/statusst.o
 .debug_ranges  0x00000c00       0x28 build/default/debug/_ext/1360937237/fifo.o
 .debug_ranges  0x00000c28       0x28 build/default/debug/_ext/1360937237/commmodule.o
 .debug_ranges  0x00000c50       0x10 build/default/debug/_ext/1360937237/system_okay.o
 .debug_ranges  0x00000c60       0x18 build/default/debug/_ext/1360937237/test.o
 .debug_ranges  0x00000c78       0x60 build/default/debug/_ext/1360937237/gpt.o
 .debug_ranges  0x00000cd8       0x28 build/default/debug/_ext/1360937237/high_side.o
 .debug_ranges  0x00000d00       0x30 build/default/debug/_ext/1360937237/gamma.o
 .debug_ranges  0x00000d30       0x18 build/default/debug/_ext/1360937237/nvm_fs.o
 .debug_ranges  0x00000d48       0x28 build/default/debug/_ext/1360937237/hid.o
 .debug_ranges  0x00000d70       0x10 build/default/debug/_ext/1360937237/report.o
 .debug_ranges  0x00000d80       0x40 build/default/debug/_ext/2062801281/CLASSB_CPUPCTest.o
 .debug_ranges  0x00000dc0       0x10 build/default/debug/_ext/2062801281/CLASSB_CRCbyte.o
 .debug_ranges  0x00000dd0       0x10 build/default/debug/_ext/2062801281/CLASSB_CRCFlashTest.o
 .debug_ranges  0x00000de0       0x18 build/default/debug/_ext/2062801281/CLASSB_RAMCheckerBoardTest.o
 .debug_ranges  0x00000df8       0xb0 build/default/debug/_ext/2062801281/CLASSB_RAMMarchBTest.o
 .debug_ranges  0x00000ea8       0x10 build/default/debug/_ext/2062801281/CLASSB_RAMMarchCStackTest.o
 .debug_ranges  0x00000eb8       0x60 build/default/debug/_ext/2062801281/CLASSB_RAMMarchCTest.o
 .debug_ranges  0x00000f18       0xc0 build/default/debug/_ext/274850301/drv_nvm.o
 .debug_ranges  0x00000fd8       0x28 build/default/debug/_ext/274850301/drv_nvm_erasewrite.o
 .debug_ranges  0x00001000       0xe8 build/default/debug/_ext/1415029366/drv_spi.o
 .debug_ranges  0x000010e8       0xe0 build/default/debug/_ext/1745438118/drv_spi_sys_queue_fifo.o
 .debug_ranges  0x000011c8       0x50 build/default/debug/_ext/1329795486/drv_usbhs.o
 .debug_ranges  0x00001218      0x1b0 build/default/debug/_ext/1329795486/drv_usbhs_device.o
 .debug_ranges  0x000013c8      0x210 build/default/debug/_ext/746721678/sys_fs.o
 .debug_ranges  0x000015d8      0x130 build/default/debug/_ext/746721678/sys_fs_media_manager.o
 .debug_ranges  0x00001708      0x3f8 build/default/debug/_ext/408548909/ff.o
 .debug_ranges  0x00001b00       0x40 build/default/debug/_ext/1290481162/diskio.o
 .debug_ranges  0x00001b40       0x50 build/default/debug/_ext/2087805404/sys_int_pic32.o
 .debug_ranges  0x00001b90      0x148 build/default/debug/_ext/945675698/sys_tmr.o
 .debug_ranges  0x00001cd8      0x190 build/default/debug/_ext/419360567/usb_device.o
 .debug_ranges  0x00001e68       0x58 build/default/debug/_ext/419360567/usb_device_hid.o
 .debug_ranges  0x00001ec0       0x48 C:\Users\DAVID~1.DOB\AppData\Local\Temp\cchLGtk6.o
 .debug_ranges  0x00001f08       0x98 c:/program files/microchip/xc32/v2.50/bin/bin/../../lib/gcc/pic32mx/4.8.3/fpu64\libgcc.a(_udivdi3.o)
 .debug_ranges  0x00001fa0       0x10 c:/program files/microchip/xc32/v2.50/bin/bin/../../lib/gcc/pic32mx/4.8.3/../../../../pic32mx/lib/fpu64\libpic32.a(default-bootstrap-exception-handler.o)
 .debug_ranges  0x00001fb0       0x10 c:/program files/microchip/xc32/v2.50/bin/bin/../../lib/gcc/pic32mx/4.8.3/../../../../pic32mx/lib/fpu64\libpic32.a(default-on-reset.o)
 .debug_ranges  0x00001fc0       0x10 c:/program files/microchip/xc32/v2.50/bin/bin/../../lib/gcc/pic32mx/4.8.3/../../../../pic32mx/lib/fpu64\libpic32.a(default-on-bootstrap.o)
 .debug_ranges  0x00001fd0       0x10 c:/program files/microchip/xc32/v2.50/bin/bin/../../lib/gcc/pic32mx/4.8.3/../../../../pic32mx/lib/fpu64\libpic32.a(defaultinterrupt.o)
 .debug_ranges  0x00001fe0       0x10 c:/program files/microchip/xc32/v2.50/bin/bin/../../lib/gcc/pic32mx/4.8.3/../../../../pic32mx/lib/fpu64\libpic32.a(default-cache-err-exception-handler.o)
 .debug_ranges  0x00001ff0       0x10 c:/program files/microchip/xc32/v2.50/bin/bin/../../lib/gcc/pic32mx/4.8.3/../../../../pic32mx/lib/fpu64\libpic32.a(default-simple-tlb-refill-exception-handler.o)

.gnu.attributes
                0x00000000       0x10
 *(.gnu.attributes)
 .gnu.attributes
                0x00000000       0x10 c:/program files/microchip/xc32/v2.50/bin/bin/../../lib/gcc/pic32mx/4.8.3/../../../../pic32mx/lib/fpu64\software-debug-break.o
 .gnu.attributes
                0x00000010       0x10 build/default/debug/_ext/977502197/drv_spi_tasks.o
 .gnu.attributes
                0x00000020       0x10 build/default/debug/_ext/977502197/drv_spi_api.o
 .gnu.attributes
                0x00000030       0x10 build/default/debug/_ext/977502197/drv_spi_master_ebm_tasks.o
 .gnu.attributes
                0x00000040       0x10 build/default/debug/_ext/1407244131/drv_tmr_static.o
 .gnu.attributes
                0x00000050       0x10 build/default/debug/_ext/1407244131/drv_tmr_mapping.o
 .gnu.attributes
                0x00000060       0x10 build/default/debug/_ext/327000265/drv_usart_mapping.o
 .gnu.attributes
                0x00000070       0x10 build/default/debug/_ext/327000265/drv_usart_static.o
 .gnu.attributes
                0x00000080       0x10 build/default/debug/_ext/327000265/drv_usart_static_byte_model.o
 .gnu.attributes
                0x00000090       0x10 build/default/debug/_ext/639803181/sys_clk_pic32mz.o
 .gnu.attributes
                0x000000a0       0x10 build/default/debug/_ext/340578644/sys_devcon.o
 .gnu.attributes
                0x000000b0       0x10 build/default/debug/_ext/340578644/sys_devcon_pic32mz.o
 .gnu.attributes
                0x000000c0       0x10 build/default/debug/_ext/822048611/sys_ports_static.o
 .gnu.attributes
                0x000000d0       0x10 build/default/debug/_ext/1688732426/system_init.o
 .gnu.attributes
                0x000000e0       0x10 build/default/debug/_ext/1688732426/system_interrupt.o
 .gnu.attributes
                0x000000f0       0x10 build/default/debug/_ext/1688732426/system_exceptions.o
 .gnu.attributes
                0x00000100       0x10 build/default/debug/_ext/1688732426/system_tasks.o
 .gnu.attributes
                0x00000110       0x10 build/default/debug/_ext/1360937237/app.o
 .gnu.attributes
                0x00000120       0x10 build/default/debug/_ext/1360937237/main.o
 .gnu.attributes
                0x00000130       0x10 build/default/debug/_ext/1360937237/switches.o
 .gnu.attributes
                0x00000140       0x10 build/default/debug/_ext/1360937237/timers.o
 .gnu.attributes
                0x00000150       0x10 build/default/debug/_ext/1360937237/crc.o
 .gnu.attributes
                0x00000160       0x10 build/default/debug/_ext/1360937237/commands.o
 .gnu.attributes
                0x00000170       0x10 build/default/debug/_ext/1360937237/statusst.o
 .gnu.attributes
                0x00000180       0x10 build/default/debug/_ext/1360937237/fifo.o
 .gnu.attributes
                0x00000190       0x10 build/default/debug/_ext/1360937237/commmodule.o
 .gnu.attributes
                0x000001a0       0x10 build/default/debug/_ext/1360937237/document.o
 .gnu.attributes
                0x000001b0       0x10 build/default/debug/_ext/1360937237/system_okay.o
 .gnu.attributes
                0x000001c0       0x10 build/default/debug/_ext/1360937237/test.o
 .gnu.attributes
                0x000001d0       0x10 build/default/debug/_ext/1360937237/gpt.o
 .gnu.attributes
                0x000001e0       0x10 build/default/debug/_ext/1360937237/high_side.o
 .gnu.attributes
                0x000001f0       0x10 build/default/debug/_ext/1360937237/gamma.o
 .gnu.attributes
                0x00000200       0x10 build/default/debug/_ext/1360937237/nvm_disk_images.o
 .gnu.attributes
                0x00000210       0x10 build/default/debug/_ext/1360937237/nvm_fs.o
 .gnu.attributes
                0x00000220       0x10 build/default/debug/_ext/1360937237/hid.o
 .gnu.attributes
                0x00000230       0x10 build/default/debug/_ext/1360937237/report.o
 .gnu.attributes
                0x00000240       0x10 build/default/debug/_ext/2062801281/CLASSB_CPUPCTest.o
 .gnu.attributes
                0x00000250       0x10 build/default/debug/_ext/2062801281/CLASSB_CRCbyte.o
 .gnu.attributes
                0x00000260       0x10 build/default/debug/_ext/2062801281/CLASSB_CRCFlashTest.o
 .gnu.attributes
                0x00000270       0x10 build/default/debug/_ext/2062801281/CLASSB_RAMCheckerBoardTest.o
 .gnu.attributes
                0x00000280       0x10 build/default/debug/_ext/2062801281/CLASSB_RAMMarchBTest.o
 .gnu.attributes
                0x00000290       0x10 build/default/debug/_ext/2062801281/CLASSB_RAMMarchCStackTest.o
 .gnu.attributes
                0x000002a0       0x10 build/default/debug/_ext/2062801281/CLASSB_RAMMarchCTest.o
 .gnu.attributes
                0x000002b0       0x10 build/default/debug/_ext/274850301/drv_nvm.o
 .gnu.attributes
                0x000002c0       0x10 build/default/debug/_ext/274850301/drv_nvm_erasewrite.o
 .gnu.attributes
                0x000002d0       0x10 build/default/debug/_ext/1415029366/drv_spi.o
 .gnu.attributes
                0x000002e0       0x10 build/default/debug/_ext/1745438118/drv_spi_sys_queue_fifo.o
 .gnu.attributes
                0x000002f0       0x10 build/default/debug/_ext/1329795486/drv_usbhs.o
 .gnu.attributes
                0x00000300       0x10 build/default/debug/_ext/1329795486/drv_usbhs_device.o
 .gnu.attributes
                0x00000310       0x10 build/default/debug/_ext/746721678/sys_fs.o
 .gnu.attributes
                0x00000320       0x10 build/default/debug/_ext/746721678/sys_fs_media_manager.o
 .gnu.attributes
                0x00000330       0x10 build/default/debug/_ext/408548909/ff.o
 .gnu.attributes
                0x00000340       0x10 build/default/debug/_ext/1290481162/diskio.o
 .gnu.attributes
                0x00000350       0x10 build/default/debug/_ext/2087805404/sys_int_pic32.o
 .gnu.attributes
                0x00000360       0x10 build/default/debug/_ext/945675698/sys_tmr.o
 .gnu.attributes
                0x00000370       0x10 build/default/debug/_ext/419360567/usb_device.o
 .gnu.attributes
                0x00000380       0x10 build/default/debug/_ext/419360567/usb_device_hid.o
 .gnu.attributes
                0x00000390       0x10 c:/program files/microchip/xc32/v2.50/bin/bin/../../lib/gcc/pic32mx/4.8.3/fpu64\libgcc.a(_udivdi3.o)
 .gnu.attributes
                0x000003a0       0x10 c:/program files/microchip/xc32/v2.50/bin/bin/../../lib/gcc/pic32mx/4.8.3/../../../../pic32mx/lib/fpu64\libpic32.a(default-bootstrap-exception-handler.o)
 .gnu.attributes
                0x000003b0       0x10 c:/program files/microchip/xc32/v2.50/bin/bin/../../lib/gcc/pic32mx/4.8.3/../../../../pic32mx/lib/fpu64\libpic32.a(default-on-reset.o)
 .gnu.attributes
                0x000003c0       0x10 c:/program files/microchip/xc32/v2.50/bin/bin/../../lib/gcc/pic32mx/4.8.3/../../../../pic32mx/lib/fpu64\libpic32.a(default-on-bootstrap.o)
 .gnu.attributes
                0x000003d0       0x10 c:/program files/microchip/xc32/v2.50/bin/bin/../../lib/gcc/pic32mx/4.8.3/../../../../pic32mx/lib/fpu64\libpic32.a(defaultinterrupt.o)
 .gnu.attributes
                0x000003e0       0x10 c:/program files/microchip/xc32/v2.50/bin/bin/../../lib/gcc/pic32mx/4.8.3/../../../../pic32mx/lib/fpu64\libpic32.a(default-cache-err-exception-handler.o)
 .gnu.attributes
                0x000003f0       0x10 c:/program files/microchip/xc32/v2.50/bin/bin/../../lib/gcc/pic32mx/4.8.3/../../../../pic32mx/lib/fpu64\libpic32.a(default-simple-tlb-refill-exception-handler.o)
 .gnu.attributes
                0x00000400       0x10 c:/program files/microchip/xc32/v2.50/bin/bin/../../lib/gcc/pic32mx/4.8.3/../../../../pic32mx/lib/fpu64\liblega-c.a(strncmp.o)
 .gnu.attributes
                0x00000410       0x10 c:/program files/microchip/xc32/v2.50/bin/bin/../../lib/gcc/pic32mx/4.8.3/../../../../pic32mx/lib/fpu64\liblega-c.a(strncpy.o)
 .gnu.attributes
                0x00000420       0x10 c:/program files/microchip/xc32/v2.50/bin/bin/../../lib/gcc/pic32mx/4.8.3/../../../../pic32mx/lib/fpu64\liblega-c.a(strchr.o)
                0x9d000000                PROVIDE (__pic32_init_cache_program_base_addr, 0x9d000000)
                0x80000000                PROVIDE (__pic32_init_cache_data_base_addr, 0x80000000)
                0xd0000000                PROVIDE (__pic32_init_sqi_kseg2_virtual_base_addr, 0xd0000000)
                0x30000000                PROVIDE (__pic32_init_sqi_kseg2_physical_base_addr, 0x30000000)
                0x0000001f                PROVIDE (__pic32_init_sqi_kseg2_entrylo0_bitset, 0x1f)
                0xd0000000                __pic32_tlb_0_entryhi = __pic32_init_sqi_kseg2_virtual_base_addr
                0x00c0001f                __pic32_tlb_0_entrylo0 = ((__pic32_init_sqi_kseg2_physical_base_addr >> 0x6) | __pic32_init_sqi_kseg2_entrylo0_bitset)
                0x00c4001f                __pic32_tlb_0_entrylo1 = (__pic32_tlb_0_entrylo0 | ((__pic32_init_sqi_kseg2_physical_base_addr + 0x1000000) >> 0x6))
                0xd2000000                __pic32_tlb_1_entryhi = (__pic32_init_sqi_kseg2_virtual_base_addr + 0x2000000)
                0x00c8001f                __pic32_tlb_1_entrylo0 = (((__pic32_init_sqi_kseg2_physical_base_addr + 0x2000000) >> 0x6) | __pic32_init_sqi_kseg2_entrylo0_bitset)
                0x00cc001f                __pic32_tlb_1_entrylo1 = (__pic32_tlb_1_entrylo0 | 0x40000)
                0xf0000000                PROVIDE (__pic32_init_sqi_kseg3_virtual_base_addr, 0xf0000000)
                0x30000000                PROVIDE (__pic32_init_sqi_kseg3_physical_base_addr, 0x30000000)
                0x00000017                PROVIDE (__pic32_init_sqi_kseg3_entrylo0_bitset, 0x17)
                0xf0000000                __pic32_tlb_2_entryhi = __pic32_init_sqi_kseg3_virtual_base_addr
                0x00c00017                __pic32_tlb_2_entrylo0 = ((__pic32_init_sqi_kseg3_physical_base_addr >> 0x6) | __pic32_init_sqi_kseg3_entrylo0_bitset)
                0x00c40017                __pic32_tlb_2_entrylo1 = (__pic32_tlb_2_entrylo0 | ((__pic32_init_sqi_kseg3_physical_base_addr + 0x1000000) >> 0x6))
                0xf2000000                __pic32_tlb_3_entryhi = (__pic32_init_sqi_kseg3_virtual_base_addr + 0x2000000)
                0x00c80017                __pic32_tlb_3_entrylo0 = (((__pic32_init_sqi_kseg3_physical_base_addr + 0x2000000) >> 0x6) | __pic32_init_sqi_kseg3_entrylo0_bitset)
                0x00cc0017                __pic32_tlb_3_entrylo1 = (__pic32_tlb_3_entrylo0 | 0x40000)
                0xc0000000                PROVIDE (__pic32_init_ebi_kseg2_virtual_base_addr, 0xc0000000)
                0x20000000                PROVIDE (__pic32_init_ebi_kseg2_physical_base_addr, 0x20000000)
                0x0000001f                PROVIDE (__pic32_init_ebi_kseg2_entrylo0_bitset, 0x1f)
                0xc0000000                __pic32_tlb_4_entryhi = __pic32_init_ebi_kseg2_virtual_base_addr
                0x0080001f                __pic32_tlb_4_entrylo0 = ((__pic32_init_ebi_kseg2_physical_base_addr >> 0x6) | __pic32_init_ebi_kseg2_entrylo0_bitset)
                0x0084001f                __pic32_tlb_4_entrylo1 = (__pic32_tlb_4_entrylo0 | ((__pic32_init_ebi_kseg2_physical_base_addr + 0x1000000) >> 0x6))
                0xc2000000                __pic32_tlb_5_entryhi = (__pic32_init_ebi_kseg2_virtual_base_addr + 0x2000000)
                0x0088001f                __pic32_tlb_5_entrylo0 = (((__pic32_init_ebi_kseg2_physical_base_addr + 0x2000000) >> 0x6) | __pic32_init_ebi_kseg2_entrylo0_bitset)
                0x008c001f                __pic32_tlb_5_entrylo1 = (__pic32_tlb_5_entrylo0 | 0x40000)
                0xe0000000                PROVIDE (__pic32_init_ebi_kseg3_virtual_base_addr, 0xe0000000)
                0x20000000                PROVIDE (__pic32_init_ebi_kseg3_physical_base_addr, 0x20000000)
                0x00000017                PROVIDE (__pic32_init_ebi_kseg3_entrylo0_bitset, 0x17)
                0xe0000000                __pic32_tlb_6_entryhi = __pic32_init_ebi_kseg3_virtual_base_addr
                0x00800017                __pic32_tlb_6_entrylo0 = ((__pic32_init_ebi_kseg3_physical_base_addr >> 0x6) | __pic32_init_ebi_kseg3_entrylo0_bitset)
                0x00840017                __pic32_tlb_6_entrylo1 = (__pic32_tlb_6_entrylo0 | ((__pic32_init_ebi_kseg3_physical_base_addr + 0x1000000) >> 0x6))
                0xe2000000                __pic32_tlb_7_entryhi = (__pic32_init_ebi_kseg3_virtual_base_addr + 0x2000000)
                0x00880017                __pic32_tlb_7_entrylo0 = (((__pic32_init_ebi_kseg3_physical_base_addr + 0x2000000) >> 0x6) | __pic32_init_ebi_kseg3_entrylo0_bitset)
                0x008c0017                __pic32_tlb_7_entrylo1 = (__pic32_tlb_7_entrylo0 | 0x40000)

.tlb_init_values
                0xbfc00670       0x60
                0xbfc00670                . = ALIGN (0x4)
                0xbfc00670                __pic32_tlb_init_values_begin = ABSOLUTE (.)
                0xbfc00670        0x4 LONG 0xd0000000 __pic32_tlb_0_entryhi
                0xbfc00674        0x4 LONG 0xc0001f __pic32_tlb_0_entrylo0
                0xbfc00678        0x4 LONG 0xc4001f __pic32_tlb_0_entrylo1
                0xbfc0067c        0x4 LONG 0xd2000000 __pic32_tlb_1_entryhi
                0xbfc00680        0x4 LONG 0xc8001f __pic32_tlb_1_entrylo0
                0xbfc00684        0x4 LONG 0xcc001f __pic32_tlb_1_entrylo1
                0xbfc00688        0x4 LONG 0xf0000000 __pic32_tlb_2_entryhi
                0xbfc0068c        0x4 LONG 0xc00017 __pic32_tlb_2_entrylo0
                0xbfc00690        0x4 LONG 0xc40017 __pic32_tlb_2_entrylo1
                0xbfc00694        0x4 LONG 0xf2000000 __pic32_tlb_3_entryhi
                0xbfc00698        0x4 LONG 0xc80017 __pic32_tlb_3_entrylo0
                0xbfc0069c        0x4 LONG 0xcc0017 __pic32_tlb_3_entrylo1
                0xbfc006a0        0x4 LONG 0xc0000000 __pic32_tlb_4_entryhi
                0xbfc006a4        0x4 LONG 0x80001f __pic32_tlb_4_entrylo0
                0xbfc006a8        0x4 LONG 0x84001f __pic32_tlb_4_entrylo1
                0xbfc006ac        0x4 LONG 0xc2000000 __pic32_tlb_5_entryhi
                0xbfc006b0        0x4 LONG 0x88001f __pic32_tlb_5_entrylo0
                0xbfc006b4        0x4 LONG 0x8c001f __pic32_tlb_5_entrylo1
                0xbfc006b8        0x4 LONG 0xe0000000 __pic32_tlb_6_entryhi
                0xbfc006bc        0x4 LONG 0x800017 __pic32_tlb_6_entrylo0
                0xbfc006c0        0x4 LONG 0x840017 __pic32_tlb_6_entrylo1
                0xbfc006c4        0x4 LONG 0xe2000000 __pic32_tlb_7_entryhi
                0xbfc006c8        0x4 LONG 0x880017 __pic32_tlb_7_entrylo0
                0xbfc006cc        0x4 LONG 0x8c0017 __pic32_tlb_7_entrylo1
                0xbfc006d0                __pic32_tlb_init_values_end = ABSOLUTE (.)
                0x00000008                __pic32_tlb_init_values_count = 0x8
LOAD c:/program files/microchip/xc32/v2.50/bin/bin/../../lib/gcc/pic32mx/4.8.3/fpu64\libgcc.a
START GROUP
LOAD c:/program files/microchip/xc32/v2.50/bin/bin/../../lib/gcc/pic32mx/4.8.3/../../../../pic32mx/lib/fpu64\libpic32.a
LOAD c:/program files/microchip/xc32/v2.50/bin/bin/../../lib/gcc/pic32mx/4.8.3/../../../../pic32mx/lib/fpu64\libdebug.a
LOAD c:/program files/microchip/xc32/v2.50/bin/bin/../../lib/gcc/pic32mx/4.8.3/../../../../pic32mx/lib/fpu64\libpic32.a
LOAD c:/program files/microchip/xc32/v2.50/bin/bin/../../lib/gcc/pic32mx/4.8.3/../../../../pic32mx/lib/fpu64\liblega-c.a
LOAD c:/program files/microchip/xc32/v2.50/bin/bin/../../lib/gcc/pic32mx/4.8.3/../../../../pic32mx/lib/fpu64\libmfd.a
LOAD c:/program files/microchip/xc32/v2.50/bin/bin/../../lib/gcc/pic32mx/4.8.3/../../../../pic32mx/lib/fpu64\libm.a
LOAD c:/program files/microchip/xc32/v2.50/bin/bin/../../lib/gcc/pic32mx/4.8.3/../../../../pic32mx/lib/fpu64\libe.a
LOAD c:/program files/microchip/xc32/v2.50/bin/bin/../../lib/gcc/pic32mx/4.8.3/../../../../pic32mx/lib/fpu64\libdspr2.a
LOAD c:/program files/microchip/xc32/v2.50/bin/bin/../../lib/gcc/pic32mx/4.8.3/../../../../pic32mx/lib/fpu64\libdsp.a
LOAD c:/program files/microchip/xc32/v2.50/bin/bin/../../lib/gcc/pic32mx/4.8.3/fpu64\libgcc.a
LOAD c:/program files/microchip/xc32/v2.50/bin/bin/../../lib/gcc/pic32mx/4.8.3/../../../../pic32mx/lib/fpu64\libpic32.a
END GROUP
LOAD c:/program files/microchip/xc32/v2.50/bin/bin/../../lib/gcc/pic32mx/4.8.3/fpu64\libgcc.a
OUTPUT(dist/default/debug/Logging_Interface_Board_Boot.X.debug.elf elf32-tradlittlemips)
LOAD stack
LOAD data_init

.reginfo        0x00000000       0x18
 .reginfo       0x00000000       0x18 c:/program files/microchip/xc32/v2.50/bin/bin/../../lib/gcc/pic32mx/4.8.3/../../../../pic32mx/lib/fpu64\software-debug-break.o

.stack          0x800070a0      0x400
 .stack         0x800070a0      0x400 stack

.__vector_offset_BF810540_data
                0xbf810540      0x1ac
 .__vector_offset_BF810540_data
                0xbf810540      0x1ac c:/program files/microchip/xc32/v2.50/bin/bin/../../lib/gcc/pic32mx/4.8.3/../../../../pic32mx/lib/./proc/32MZ2048EFH144\vector_offset_init.o

.__vector_offset_BF8106F4_data
                0xbf8106f4      0x148
 .__vector_offset_BF8106F4_data
                0xbf8106f4      0x148 c:/program files/microchip/xc32/v2.50/bin/bin/../../lib/gcc/pic32mx/4.8.3/../../../../pic32mx/lib/./proc/32MZ2048EFH144\vector_offset_init.o

.__vector_offset_BF810874_data
                0xbf810874       0x18
 .__vector_offset_BF810874_data
                0xbf810874       0x18 c:/program files/microchip/xc32/v2.50/bin/bin/../../lib/gcc/pic32mx/4.8.3/../../../../pic32mx/lib/./proc/32MZ2048EFH144\vector_offset_init.o

.__vector_offset_BF810858_data
                0xbf810858       0x14
 .__vector_offset_BF810858_data
                0xbf810858       0x14 c:/program files/microchip/xc32/v2.50/bin/bin/../../lib/gcc/pic32mx/4.8.3/../../../../pic32mx/lib/./proc/32MZ2048EFH144\vector_offset_init.o

.__vector_offset_BF810840_data
                0xbf810840        0xc
 .__vector_offset_BF810840_data
                0xbf810840        0xc c:/program files/microchip/xc32/v2.50/bin/bin/../../lib/gcc/pic32mx/4.8.3/../../../../pic32mx/lib/./proc/32MZ2048EFH144\vector_offset_init.o

.__vector_offset_BF810850_data
                0xbf810850        0x4
 .__vector_offset_BF810850_data
                0xbf810850        0x4 c:/program files/microchip/xc32/v2.50/bin/bin/../../lib/gcc/pic32mx/4.8.3/../../../../pic32mx/lib/./proc/32MZ2048EFH144\vector_offset_init.o

.__vector_offset_BF810894_data
                0xbf810894        0x4
 .__vector_offset_BF810894_data
                0xbf810894        0x4 c:/program files/microchip/xc32/v2.50/bin/bin/../../lib/gcc/pic32mx/4.8.3/../../../../pic32mx/lib/./proc/32MZ2048EFH144\vector_offset_init.o

.COHERENTBSS$   0xa0001240     0x4f10
 .COHERENTBSS$  0xa0001240     0x4000 build/default/debug/_ext/274850301/drv_nvm.o
                0xa0001240                gDrvNVMEraseBuffer
 .bss.gSYSFSMediaBlockBuffer.gSYSFSMediaBlockBuffer
                0xa0005240      0x800 build/default/debug/_ext/746721678/sys_fs_media_manager.o
                0xa0005240                gSYSFSMediaBlockBuffer
 .bss.FAFFSVolume.FAFFSVolume
                0xa0005a40      0x250 build/default/debug/_ext/408548909/ff.o
 .bss.FATFSFileObject.FATFSFileObject
                0xa0005c90      0x240 build/default/debug/_ext/408548909/ff.o
 .bss.gSYSFSMediaBuffer.gSYSFSMediaBuffer
                0xa0005ed0      0x200 build/default/debug/_ext/746721678/sys_fs_media_manager.o
                0xa0005ed0                gSYSFSMediaBuffer
 .bss.transmitDataBuffer.transmitDataBuffer
                0xa00060d0       0x40 build/default/debug/_ext/1360937237/hid.o
                0xa00060d0                transmitDataBuffer
 .bss.receiveDataBuffer.receiveDataBuffer
                0xa0006110       0x40 build/default/debug/_ext/1360937237/hid.o
                0xa0006110                receiveDataBuffer

.bss            0x80006150      0x7bc
 .bss           0x80006150      0x44c build/default/debug/_ext/1360937237/gpt.o
 .bss           0x8000659c      0x370 build/default/debug/_ext/1415029366/drv_spi.o

.bss            0x8000690c      0x390
 .bss           0x8000690c      0x238 build/default/debug/_ext/408548909/ff.o
 .bss           0x80006b44      0x158 build/default/debug/_ext/419360567/usb_device.o

.bss            0x80006c9c       0x90
 .bss           0x80006c9c       0x90 build/default/debug/_ext/945675698/sys_tmr.o

.data           0x80006d2c       0xdc
 .data          0x80006d2c       0x8c build/default/debug/_ext/1688732426/system_init.o
                0x80006d2c                drvSpi0InitData
                0x80006da0                NVMGeometryTable
 .data          0x80006db8       0x50 build/default/debug/_ext/1329795486/drv_usbhs_device.o
                0x80006db8                gDrvUSBHSDeviceInterface

.data           0x80006e08       0x54
 .data          0x80006e08       0x2c build/default/debug/_ext/746721678/sys_fs_media_manager.o
                0x80006e08                gSYSFSMediaManagerObj
                0x80006e20                gSYSFSVolumeName
 .data          0x80006e34       0x28 build/default/debug/_ext/1415029366/drv_spi.o

.bss            0x80006e5c       0x24
 .bss           0x80006e5c       0x14 build/default/debug/_ext/1407244131/drv_tmr_static.o
 .bss           0x80006e70       0x10 build/default/debug/_ext/1360937237/fifo.o

.FAT_IMAGE.FAT_IMAGE
                0x9d010000     0x8000
 .FAT_IMAGE.FAT_IMAGE
                0x9d010000     0x8000 build/default/debug/_ext/1360937237/nvm_disk_images.o
                0x9d010000                FAT_IMAGE

.text.CLASSB_CPUPCTestFunction1.CLASSB_CPUPCTestFunction1
                0x9d1c0000       0x10
 .text.CLASSB_CPUPCTestFunction1.CLASSB_CPUPCTestFunction1
                0x9d1c0000       0x10 build/default/debug/_ext/2062801281/CLASSB_CPUPCTest.o
                0x9d1c0000                CLASSB_CPUPCTestFunction1

.text.CLASSB_CPUPCTestFunction2.CLASSB_CPUPCTestFunction2
                0x9d1aaaa0       0x10
 .text.CLASSB_CPUPCTestFunction2.CLASSB_CPUPCTestFunction2
                0x9d1aaaa0       0x10 build/default/debug/_ext/2062801281/CLASSB_CPUPCTest.o
                0x9d1aaaa0                CLASSB_CPUPCTestFunction2

.text.CLASSB_CPUPCTestFunction3.CLASSB_CPUPCTestFunction3
                0x9d155550       0x10
 .text.CLASSB_CPUPCTestFunction3.CLASSB_CPUPCTestFunction3
                0x9d155550       0x10 build/default/debug/_ext/2062801281/CLASSB_CPUPCTest.o
                0x9d155550                CLASSB_CPUPCTestFunction3

.text           0x9d0002a0     0x511c
 .text          0x9d0002a0     0x511c build/default/debug/_ext/2062801281/CLASSB_CPURegistersTest.o
                0x9d0002a8                CLASSB_CPURegistersTest

.text.f_mkfs    0x9d0053bc      0x9ac
 .text.f_mkfs   0x9d0053bc      0x9ac build/default/debug/_ext/408548909/ff.o
                0x9d0053bc                f_mkfs

.text._DRV_USBHS_DEVICE_Tasks_ISR
                0x9d005d68      0x92c
 .text._DRV_USBHS_DEVICE_Tasks_ISR
                0x9d005d68      0x92c build/default/debug/_ext/1329795486/drv_usbhs_device.o
                0x9d005d68                _DRV_USBHS_DEVICE_Tasks_ISR

.text.GPT_RX_Tasks
                0x9d006694      0x868
 .text.GPT_RX_Tasks
                0x9d006694      0x868 build/default/debug/_ext/1360937237/gpt.o
                0x9d006694                GPT_RX_Tasks

.dinit          0x9d006efc      0x750
 .dinit         0x9d006efc      0x750 data_init

.text.follow_path
                0x9d00764c      0x700
 .text.follow_path
                0x9d00764c      0x700 build/default/debug/_ext/408548909/ff.o

.text.SYS_FS_MEDIA_MANAGER_Tasks
                0x9d007d4c      0x6e0
 .text.SYS_FS_MEDIA_MANAGER_Tasks
                0x9d007d4c      0x6e0 build/default/debug/_ext/746721678/sys_fs_media_manager.o
                0x9d007d4c                SYS_FS_MEDIA_MANAGER_Tasks

.text.find_volume
                0x9d00842c      0x5ac
 .text.find_volume
                0x9d00842c      0x5ac build/default/debug/_ext/408548909/ff.o

.text.DRV_USBHS_DEVICE_IRPSubmit
                0x9d0089d8      0x560
 .text.DRV_USBHS_DEVICE_IRPSubmit
                0x9d0089d8      0x560 build/default/debug/_ext/1329795486/drv_usbhs_device.o
                0x9d0089d8                DRV_USBHS_DEVICE_IRPSubmit

.text.NVM_FS_Tasks
                0x9d008f38      0x530
 .text.NVM_FS_Tasks
                0x9d008f38      0x530 build/default/debug/_ext/1360937237/nvm_fs.o
                0x9d008f38                NVM_FS_Tasks

.text.f_printf  0x9d009468      0x510
 .text.f_printf
                0x9d009468      0x510 build/default/debug/_ext/408548909/ff.o
                0x9d009468                f_printf

.text.SWITCH_Tasks
                0x9d009978      0x4e8
 .text.SWITCH_Tasks
                0x9d009978      0x4e8 build/default/debug/_ext/1360937237/switches.o
                0x9d009978                SWITCH_Tasks

.text.dir_register
                0x9d009e60      0x47c
 .text.dir_register
                0x9d009e60      0x47c build/default/debug/_ext/408548909/ff.o

.text.HIGH_SIDE_Tasks
                0x9d00a2dc      0x458
 .text.HIGH_SIDE_Tasks
                0x9d00a2dc      0x458 build/default/debug/_ext/1360937237/high_side.o
                0x9d00a2dc                HIGH_SIDE_Tasks

.text.COMMAND_Tasks
                0x9d00a734      0x44c
 .text.COMMAND_Tasks
                0x9d00a734      0x44c build/default/debug/_ext/1360937237/commands.o
                0x9d00a734                COMMAND_Tasks

.text._DRV_USBHS_ProcessIRPFIFO
                0x9d00ab80      0x424
 .text._DRV_USBHS_ProcessIRPFIFO
                0x9d00ab80      0x424 build/default/debug/_ext/1329795486/drv_usbhs_device.o
                0x9d00ab80                _DRV_USBHS_ProcessIRPFIFO

.text.DRV_USBHS_DEVICE_EndpointEnable
                0x9d00afa4      0x400
 .text.DRV_USBHS_DEVICE_EndpointEnable
                0x9d00afa4      0x400 build/default/debug/_ext/1329795486/drv_usbhs_device.o
                0x9d00afa4                DRV_USBHS_DEVICE_EndpointEnable

.text._IntHandlerChangeNotification_PortD
                0x9d00b3a4      0x3cc
 .text._IntHandlerChangeNotification_PortD
                0x9d00b3a4      0x3cc build/default/debug/_ext/1688732426/system_interrupt.o
                0x9d00b3a4                _IntHandlerChangeNotification_PortD

.text.DRV_NVM_Tasks
                0x9d00b770      0x3bc
 .text.DRV_NVM_Tasks
                0x9d00b770      0x3bc build/default/debug/_ext/274850301/drv_nvm.o
                0x9d00b770                DRV_NVM_Tasks

.text.DRV_SPI_SetupHardware
                0x9d00bb2c      0x394
 .text.DRV_SPI_SetupHardware
                0x9d00bb2c      0x394 build/default/debug/_ext/977502197/drv_spi_api.o
                0x9d00bb2c                DRV_SPI_SetupHardware

.text.f_setlabel
                0x9d00bec0      0x394
 .text.f_setlabel
                0x9d00bec0      0x394 build/default/debug/_ext/408548909/ff.o
                0x9d00bec0                f_setlabel

.text.SYS_PORTS_Initialize
                0x9d00c254      0x340
 .text.SYS_PORTS_Initialize
                0x9d00c254      0x340 build/default/debug/_ext/822048611/sys_ports_static.o
                0x9d00c254                SYS_PORTS_Initialize

.text.f_open    0x9d00c594      0x340
 .text.f_open   0x9d00c594      0x340 build/default/debug/_ext/408548909/ff.o
                0x9d00c594                f_open

.text.f_write   0x9d00c8d4      0x334
 .text.f_write  0x9d00c8d4      0x334 build/default/debug/_ext/408548909/ff.o
                0x9d00c8d4                f_write

.text.SYS_TMR_Tasks
                0x9d00cc08      0x308
 .text.SYS_TMR_Tasks
                0x9d00cc08      0x308 build/default/debug/_ext/945675698/sys_tmr.o
                0x9d00cc08                SYS_TMR_Tasks

.text.dir_find  0x9d00cf10      0x2f8
 .text.dir_find
                0x9d00cf10      0x2f8 build/default/debug/_ext/408548909/ff.o

.text._USB_DEVICE_HID_ControlTransferHandler
                0x9d00d208      0x2f8
 .text._USB_DEVICE_HID_ControlTransferHandler
                0x9d00d208      0x2f8 build/default/debug/_ext/419360567/usb_device_hid.o
                0x9d00d208                _USB_DEVICE_HID_ControlTransferHandler

.text.f_mkdir   0x9d00d500      0x2f4
 .text.f_mkdir  0x9d00d500      0x2f4 build/default/debug/_ext/408548909/ff.o
                0x9d00d500                f_mkdir

.text._IntHandlerChangeNotification_PortH
                0x9d00d7f4      0x2e4
 .text._IntHandlerChangeNotification_PortH
                0x9d00d7f4      0x2e4 build/default/debug/_ext/1688732426/system_interrupt.o
                0x9d00d7f4                _IntHandlerChangeNotification_PortH

.text.f_read    0x9d00dad8      0x2d8
 .text.f_read   0x9d00dad8      0x2d8 build/default/debug/_ext/408548909/ff.o
                0x9d00dad8                f_read

.text.f_lseek   0x9d00ddb0      0x2d4
 .text.f_lseek  0x9d00ddb0      0x2d4 build/default/debug/_ext/408548909/ff.o
                0x9d00ddb0                f_lseek

.text.RAMMarchBTestCycle
                0x9d00e084      0x2d0
 .text.RAMMarchBTestCycle
                0x9d00e084      0x2d0 build/default/debug/_ext/2062801281/CLASSB_RAMMarchBTest.o

.text.SYS_FS_MEDIA_MANAGER_SectorWrite
                0x9d00e354      0x2b8
 .text.SYS_FS_MEDIA_MANAGER_SectorWrite
                0x9d00e354      0x2b8 build/default/debug/_ext/746721678/sys_fs_media_manager.o
                0x9d00e354                SYS_FS_MEDIA_MANAGER_SectorWrite

.text.TIMER_Tasks
                0x9d00e60c      0x2b4
 .text.TIMER_Tasks
                0x9d00e60c      0x2b4 build/default/debug/_ext/1360937237/timers.o
                0x9d00e60c                TIMER_Tasks

.text.SYS_FS_FileOpen
                0x9d00e8c0      0x2b4
 .text.SYS_FS_FileOpen
                0x9d00e8c0      0x2b4 build/default/debug/_ext/746721678/sys_fs.o
                0x9d00e8c0                SYS_FS_FileOpen

.text.DRV_USBHS_DEVICE_Detach
                0x9d00eb74      0x2a8
 .text.DRV_USBHS_DEVICE_Detach
                0x9d00eb74      0x2a8 build/default/debug/_ext/1329795486/drv_usbhs_device.o
                0x9d00eb74                DRV_USBHS_DEVICE_Detach

.text._DRV_USBHS_DEVICE_Tasks_ISR_USBDMA
                0x9d00ee1c      0x2a4
 .text._DRV_USBHS_DEVICE_Tasks_ISR_USBDMA
                0x9d00ee1c      0x2a4 build/default/debug/_ext/1329795486/drv_usbhs_device.o
                0x9d00ee1c                _DRV_USBHS_DEVICE_Tasks_ISR_USBDMA

.text.DRV_SPI_PolledMasterEBM8BitTasks
                0x9d00f0c0      0x29c
 .text.DRV_SPI_PolledMasterEBM8BitTasks
                0x9d00f0c0      0x29c build/default/debug/_ext/977502197/drv_spi_tasks.o
                0x9d00f0c0                DRV_SPI_PolledMasterEBM8BitTasks

.text.DRV_SPI_PolledMasterEBM16BitTasks
                0x9d00f35c      0x29c
 .text.DRV_SPI_PolledMasterEBM16BitTasks
                0x9d00f35c      0x29c build/default/debug/_ext/977502197/drv_spi_tasks.o
                0x9d00f35c                DRV_SPI_PolledMasterEBM16BitTasks

.text.DRV_USBHS_Tasks
                0x9d00f5f8      0x298
 .text.DRV_USBHS_Tasks
                0x9d00f5f8      0x298 build/default/debug/_ext/1329795486/drv_usbhs.o
                0x9d00f5f8                DRV_USBHS_Tasks

.text.DRV_USBHS_DEVICE_EndpointDisable
                0x9d00f890      0x298
 .text.DRV_USBHS_DEVICE_EndpointDisable
                0x9d00f890      0x298 build/default/debug/_ext/1329795486/drv_usbhs_device.o
                0x9d00f890                DRV_USBHS_DEVICE_EndpointDisable

.text.DRV_SPI_Initialize
                0x9d00fb28      0x278
 .text.DRV_SPI_Initialize
                0x9d00fb28      0x278 build/default/debug/_ext/1415029366/drv_spi.o
                0x9d00fb28                DRV_SPI_Initialize

.text.f_getcwd  0x9d1aaab0      0x278
 .text.f_getcwd
                0x9d1aaab0      0x278 build/default/debug/_ext/408548909/ff.o
                0x9d1aaab0                f_getcwd

.text.DRV_SPI_Open
                0x9d1aad28      0x26c
 .text.DRV_SPI_Open
                0x9d1aad28      0x26c build/default/debug/_ext/1415029366/drv_spi.o
                0x9d1aad28                DRV_SPI_Open

.text.IntHandlerDrvTmrInstance5
                0x9d1aaf94      0x264
 .text.IntHandlerDrvTmrInstance5
                0x9d1aaf94      0x264 build/default/debug/_ext/1688732426/system_interrupt.o
                0x9d1aaf94                IntHandlerDrvTmrInstance5

.text._IntHandlerDrvNvm
                0x9d00fda0      0x254
 .text._IntHandlerDrvNvm
                0x9d00fda0      0x254 build/default/debug/_ext/1688732426/system_interrupt.o
                0x9d00fda0                _IntHandlerDrvNvm

.text._IntHandlerUSBInstance0
                0x9d1ab1f8      0x254
 .text._IntHandlerUSBInstance0
                0x9d1ab1f8      0x254 build/default/debug/_ext/1688732426/system_interrupt.o
                0x9d1ab1f8                _IntHandlerUSBInstance0

.text._IntHandlerUSBInstance0_USBDMA
                0x9d1ab44c      0x254
 .text._IntHandlerUSBInstance0_USBDMA
                0x9d1ab44c      0x254 build/default/debug/_ext/1688732426/system_interrupt.o
                0x9d1ab44c                _IntHandlerUSBInstance0_USBDMA

.text.DRV_NVM_EraseWrite
                0x9d1ab6a0      0x250
 .text.DRV_NVM_EraseWrite
                0x9d1ab6a0      0x250 build/default/debug/_ext/274850301/drv_nvm_erasewrite.o
                0x9d1ab6a0                DRV_NVM_EraseWrite

.text.f_fdisk   0x9d1ab8f0      0x250
 .text.f_fdisk  0x9d1ab8f0      0x250 build/default/debug/_ext/408548909/ff.o
                0x9d1ab8f0                f_fdisk

.text.HID_Tasks
                0x9d1abb40      0x244
 .text.HID_Tasks
                0x9d1abb40      0x244 build/default/debug/_ext/1360937237/hid.o
                0x9d1abb40                HID_Tasks

.text.DRV_USBHS_DEVICE_EndpointStall
                0x9d1abd84      0x240
 .text.DRV_USBHS_DEVICE_EndpointStall
                0x9d1abd84      0x240 build/default/debug/_ext/1329795486/drv_usbhs_device.o
                0x9d1abd84                DRV_USBHS_DEVICE_EndpointStall

.text.dir_read  0x9d1abfc4      0x238
 .text.dir_read
                0x9d1abfc4      0x238 build/default/debug/_ext/408548909/ff.o

.text.SYS_FS_Mount
                0x9d1ac1fc      0x234
 .text.SYS_FS_Mount
                0x9d1ac1fc      0x234 build/default/debug/_ext/746721678/sys_fs.o
                0x9d1ac1fc                SYS_FS_Mount

.text._USB_DEVICE_Other_Speed_Descriptor_Request
                0x9d1ac430      0x224
 .text._USB_DEVICE_Other_Speed_Descriptor_Request
                0x9d1ac430      0x224 build/default/debug/_ext/419360567/usb_device.o
                0x9d1ac430                _USB_DEVICE_Other_Speed_Descriptor_Request

.text.RAMMarchCTestCycle
                0x9d1ac654      0x220
 .text.RAMMarchCTestCycle
                0x9d1ac654      0x220 build/default/debug/_ext/2062801281/CLASSB_RAMMarchCTest.o

.text._DRV_NVM_BlockOperation
                0x9d1ac874      0x21c
 .text._DRV_NVM_BlockOperation
                0x9d1ac874      0x21c build/default/debug/_ext/274850301/drv_nvm.o
                0x9d1ac874                _DRV_NVM_BlockOperation

.text.COMM_Tasks
                0x9d1aca90      0x218
 .text.COMM_Tasks
                0x9d1aca90      0x218 build/default/debug/_ext/1360937237/commmodule.o
                0x9d1aca90                COMM_Tasks

.text.DACQ_ReportCreate
                0x9d1acca8      0x214
 .text.DACQ_ReportCreate
                0x9d1acca8      0x214 build/default/debug/_ext/1360937237/report.o
                0x9d1acca8                DACQ_ReportCreate

.text._USB_DEVICE_ProcessStandardDeviceSetRequests
                0x9d1acebc      0x214
 .text._USB_DEVICE_ProcessStandardDeviceSetRequests
                0x9d1acebc      0x214 build/default/debug/_ext/419360567/usb_device.o
                0x9d1acebc                _USB_DEVICE_ProcessStandardDeviceSetRequests

.text.DRV_USBHS_DEVICE_EndpointStallClear
                0x9d1ad0d0      0x210
 .text.DRV_USBHS_DEVICE_EndpointStallClear
                0x9d1ad0d0      0x210 build/default/debug/_ext/1329795486/drv_usbhs_device.o
                0x9d1ad0d0                DRV_USBHS_DEVICE_EndpointStallClear

.rodata         0x9d1ad2e0      0x20c
 .rodata        0x9d1ad2e0      0x20c build/default/debug/_ext/1688732426/system_init.o
                0x9d1ad2e0                usbDevInitData
                0x9d1ad314                usbMasterDescriptor
                0x9d1ad340                stringDescriptors
                0x9d1ad34c                sd002
                0x9d1ad37c                sd001
                0x9d1ad3b0                sd000
                0x9d1ad3b4                fullSpeedConfigDescSet
                0x9d1ad3b8                fullSpeedConfigurationDescriptor
                0x9d1ad3e4                highSpeedConfigDescSet
                0x9d1ad3e8                highSpeedConfigurationDescriptor
                0x9d1ad414                deviceQualifierDescriptor1
                0x9d1ad420                deviceDescriptor
                0x9d1ad434                funcRegistrationTable
                0x9d1ad448                hidInit0
                0x9d1ad458                hid_rpt0
                0x9d1ad474                sysTmrInitData
                0x9d1ad47c                sysFSInit
                0x9d1ad484                sysfsMountTable
                0x9d1ad494                drvUSBHSInit
                0x9d1ad4c4                drvNvmInit
                0x9d1ad4d8                NVMGeometry

.text._USB_DEVICE_ProcessStandardDeviceGetRequests
                0x9d1ad4ec      0x204
 .text._USB_DEVICE_ProcessStandardDeviceGetRequests
                0x9d1ad4ec      0x204 build/default/debug/_ext/419360567/usb_device.o
                0x9d1ad4ec                _USB_DEVICE_ProcessStandardDeviceGetRequests

.text._USB_DEVICE_ControlTransferHandler
                0x9d1ad6f0      0x204
 .text._USB_DEVICE_ControlTransferHandler
                0x9d1ad6f0      0x204 build/default/debug/_ext/419360567/usb_device.o
                0x9d1ad6f0                _USB_DEVICE_ControlTransferHandler

.text.f_rename  0x9d1ad8f4      0x200
 .text.f_rename
                0x9d1ad8f4      0x200 build/default/debug/_ext/408548909/ff.o
                0x9d1ad8f4                f_rename

.text.get_fileinfo
                0x9d1adaf4      0x1fc
 .text.get_fileinfo
                0x9d1adaf4      0x1fc build/default/debug/_ext/408548909/ff.o

.text._USB_DEVICE_EventHandler
                0x9d1adcf0      0x1f8
 .text._USB_DEVICE_EventHandler
                0x9d1adcf0      0x1f8 build/default/debug/_ext/419360567/usb_device.o
                0x9d1adcf0                _USB_DEVICE_EventHandler

.text.dir_next  0x9d1adee8      0x1ec
 .text.dir_next
                0x9d1adee8      0x1ec build/default/debug/_ext/408548909/ff.o

.text.DRV_SPI_SYS_QUEUE_Initialize
                0x9d1ae0d4      0x1e0
 .text.DRV_SPI_SYS_QUEUE_Initialize
                0x9d1ae0d4      0x1e0 build/default/debug/_ext/1745438118/drv_spi_sys_queue_fifo.o
                0x9d1ae0d4                DRV_SPI_SYS_QUEUE_Initialize

.text.DRV_USBHS_DEVICE_IRPCancelAll
                0x9d1ae2b4      0x1e0
 .text.DRV_USBHS_DEVICE_IRPCancelAll
                0x9d1ae2b4      0x1e0 build/default/debug/_ext/1329795486/drv_usbhs_device.o
                0x9d1ae2b4                DRV_USBHS_DEVICE_IRPCancelAll

.text.put_fat   0x9d1ae494      0x1c8
 .text.put_fat  0x9d1ae494      0x1c8 build/default/debug/_ext/408548909/ff.o
                0x9d1ae494                put_fat

.text.f_getfree
                0x9d1ae65c      0x1c4
 .text.f_getfree
                0x9d1ae65c      0x1c4 build/default/debug/_ext/408548909/ff.o
                0x9d1ae65c                f_getfree

.text.SYS_Initialize
                0x9d1ae820      0x1c0
 .text.SYS_Initialize
                0x9d1ae820      0x1c0 build/default/debug/_ext/1688732426/system_init.o
                0x9d1ae820                SYS_Initialize

.text.DRV_NVM_Read
                0x9d1ae9e0      0x1b8
 .text.DRV_NVM_Read
                0x9d1ae9e0      0x1b8 build/default/debug/_ext/274850301/drv_nvm.o
                0x9d1ae9e0                DRV_NVM_Read

.text.create_chain
                0x9d1aeb98      0x1a4
 .text.create_chain
                0x9d1aeb98      0x1a4 build/default/debug/_ext/408548909/ff.o

.text.ClassB_Test
                0x9d1aed3c      0x1a0
 .text.ClassB_Test
                0x9d1aed3c      0x1a0 build/default/debug/_ext/1360937237/test.o
                0x9d1aed3c                ClassB_Test

.text.DRV_SPI_BufferAddWrite2
                0x9d1aeedc      0x198
 .text.DRV_SPI_BufferAddWrite2
                0x9d1aeedc      0x198 build/default/debug/_ext/1415029366/drv_spi.o
                0x9d1aeedc                DRV_SPI_BufferAddWrite2

.text.get_fat   0x9d1af074      0x18c
 .text.get_fat  0x9d1af074      0x18c build/default/debug/_ext/408548909/ff.o
                0x9d1af074                get_fat

.text.f_unlink  0x9d1af200      0x184
 .text.f_unlink
                0x9d1af200      0x184 build/default/debug/_ext/408548909/ff.o
                0x9d1af200                f_unlink

.text._USB_DEVICE_Ep0ReceiveCompleteCallback
                0x9d1af384      0x184
 .text._USB_DEVICE_Ep0ReceiveCompleteCallback
                0x9d1af384      0x184 build/default/debug/_ext/419360567/usb_device.o
                0x9d1af384                _USB_DEVICE_Ep0ReceiveCompleteCallback

.text.f_opendir
                0x9d1af508      0x17c
 .text.f_opendir
                0x9d1af508      0x17c build/default/debug/_ext/408548909/ff.o
                0x9d1af508                f_opendir

.text.CLASSB_RAMMarchCTest
                0x9d1af684      0x178
 .text.CLASSB_RAMMarchCTest
                0x9d1af684      0x178 build/default/debug/_ext/2062801281/CLASSB_RAMMarchCTest.o
                0x9d1af684                CLASSB_RAMMarchCTest

.text.USB_DEVICE_Tasks
                0x9d1af7fc      0x178
 .text.USB_DEVICE_Tasks
                0x9d1af7fc      0x178 build/default/debug/_ext/419360567/usb_device.o
                0x9d1af7fc                USB_DEVICE_Tasks

.text.CLASSB_RAMCheckerBoardTest
                0x9d1af974      0x170
 .text.CLASSB_RAMCheckerBoardTest
                0x9d1af974      0x170 build/default/debug/_ext/2062801281/CLASSB_RAMCheckerBoardTest.o
                0x9d1af974                CLASSB_RAMCheckerBoardTest

.text.CLASSB_RAMMarchBTest
                0x9d1afae4      0x170
 .text.CLASSB_RAMMarchBTest
                0x9d1afae4      0x170 build/default/debug/_ext/2062801281/CLASSB_RAMMarchBTest.o
                0x9d1afae4                CLASSB_RAMMarchBTest

.text.USB_DEVICE_HID_ReportSend
                0x9d1afc54      0x170
 .text.USB_DEVICE_HID_ReportSend
                0x9d1afc54      0x170 build/default/debug/_ext/419360567/usb_device_hid.o
                0x9d1afc54                USB_DEVICE_HID_ReportSend

.text.USB_DEVICE_HID_ReportReceive
                0x9d1afdc4      0x170
 .text.USB_DEVICE_HID_ReportReceive
                0x9d1afdc4      0x170 build/default/debug/_ext/419360567/usb_device_hid.o
                0x9d1afdc4                USB_DEVICE_HID_ReportReceive

.text.SYS_FS_GetDisk
                0x9d1aff34      0x168
 .text.SYS_FS_GetDisk
                0x9d1aff34      0x168 build/default/debug/_ext/746721678/sys_fs.o

.text           0x9d1b009c      0x2d0
 .text          0x9d1b009c      0x168 c:/program files/microchip/xc32/v2.50/bin/bin/../../lib/gcc/pic32mx/4.8.3/../../../../pic32mx/lib/fpu64\libpic32.a(memcpy.o)
                0x9d1b009c                memcpy
 .text          0x9d1b0204      0x168 c:/program files/microchip/xc32/v2.50/bin/bin/../../lib/gcc/pic32mx/4.8.3/../../../../pic32mx/lib/fpu64\libpic32.a(strlen.o)
                0x9d1b0204                strlen

.text.f_truncate
                0x9d1b036c      0x160
 .text.f_truncate
                0x9d1b036c      0x160 build/default/debug/_ext/408548909/ff.o
                0x9d1b036c                f_truncate

.text.USB_DEVICE_Initialize
                0x9d1b04cc      0x15c
 .text.USB_DEVICE_Initialize
                0x9d1b04cc      0x15c build/default/debug/_ext/419360567/usb_device.o
                0x9d1b04cc                USB_DEVICE_Initialize

.text.dir_sdi   0x9d1b0628      0x150
 .text.dir_sdi  0x9d1b0628      0x150 build/default/debug/_ext/408548909/ff.o

.text.f_sync    0x9d1b0778      0x140
 .text.f_sync   0x9d1b0778      0x140 build/default/debug/_ext/408548909/ff.o
                0x9d1b0778                f_sync

.text._USB_DEVICE_HID_InitializeByDescriptorType
                0x9d1b08b8      0x140
 .text._USB_DEVICE_HID_InitializeByDescriptorType
                0x9d1b08b8      0x140 build/default/debug/_ext/419360567/usb_device_hid.o
                0x9d1b08b8                _USB_DEVICE_HID_InitializeByDescriptorType

.text.DRV_USART0_Initialize
                0x9d1b09f8      0x13c
 .text.DRV_USART0_Initialize
                0x9d1b09f8      0x13c build/default/debug/_ext/327000265/drv_usart_static.o
                0x9d1b09f8                DRV_USART0_Initialize

.text._DRV_USBHS_DEVICE_FIFOAllocate
                0x9d1b0b34      0x13c
 .text._DRV_USBHS_DEVICE_FIFOAllocate
                0x9d1b0b34      0x13c build/default/debug/_ext/1329795486/drv_usbhs_device.o
                0x9d1b0b34                _DRV_USBHS_DEVICE_FIFOAllocate

.text.DRV_USBHS_DEVICE_TestModeEnter
                0x9d1b0c70      0x138
 .text.DRV_USBHS_DEVICE_TestModeEnter
                0x9d1b0c70      0x138 build/default/debug/_ext/1329795486/drv_usbhs_device.o
                0x9d1b0c70                DRV_USBHS_DEVICE_TestModeEnter

.text.SYS_FS_Unmount
                0x9d1b0da8      0x138
 .text.SYS_FS_Unmount
                0x9d1b0da8      0x138 build/default/debug/_ext/746721678/sys_fs.o
                0x9d1b0da8                SYS_FS_Unmount

.text.f_getlabel
                0x9d1b0ee0      0x138
 .text.f_getlabel
                0x9d1b0ee0      0x138 build/default/debug/_ext/408548909/ff.o
                0x9d1b0ee0                f_getlabel

.text.DRV_USART1_Initialize
                0x9d1b1018      0x134
 .text.DRV_USART1_Initialize
                0x9d1b1018      0x134 build/default/debug/_ext/327000265/drv_usart_static.o
                0x9d1b1018                DRV_USART1_Initialize

.text.SYS_FS_FileSeek
                0x9d1b114c      0x12c
 .text.SYS_FS_FileSeek
                0x9d1b114c      0x12c build/default/debug/_ext/746721678/sys_fs.o
                0x9d1b114c                SYS_FS_FileSeek

.rodata         0x9d1b1278      0x128
 .rodata        0x9d1b1278      0x128 build/default/debug/_ext/1688732426/system_exceptions.o

.text.RAMCheckerBoardTestCycle
                0x9d1b13a0      0x128
 .text.RAMCheckerBoardTestCycle
                0x9d1b13a0      0x128 build/default/debug/_ext/2062801281/CLASSB_RAMCheckerBoardTest.o

.text.DRV_NVM_Initialize
                0x9d1b14c8      0x128
 .text.DRV_NVM_Initialize
                0x9d1b14c8      0x128 build/default/debug/_ext/274850301/drv_nvm.o
                0x9d1b14c8                DRV_NVM_Initialize

.rodata         0x9d1b15f0      0x120
 .rodata        0x9d1b15f0      0x120 build/default/debug/_ext/408548909/ff.o
                0x9d1b1688                FatFsFunctions

.text           0x9d1b1710      0x120
 .text          0x9d1b1710      0x120 c:/program files/microchip/xc32/v2.50/bin/bin/../../lib/gcc/pic32mx/4.8.3/../../../../pic32mx/lib/fpu64\libpic32.a(strcmp.o)
                0x9d1b1710                strcmp

.text.sync_fs   0x9d1b1830      0x11c
 .text.sync_fs  0x9d1b1830      0x11c build/default/debug/_ext/408548909/ff.o

.text.DRV_NVM_Close
                0x9d1b194c      0x114
 .text.DRV_NVM_Close
                0x9d1b194c      0x114 build/default/debug/_ext/274850301/drv_nvm.o
                0x9d1b194c                DRV_NVM_Close

.text.DRV_SPI_SYS_QUEUE_CreateQueue
                0x9d1b1a60      0x110
 .text.DRV_SPI_SYS_QUEUE_CreateQueue
                0x9d1b1a60      0x110 build/default/debug/_ext/1745438118/drv_spi_sys_queue_fifo.o
                0x9d1b1a60                DRV_SPI_SYS_QUEUE_CreateQueue

.text.SYS_DEVCON_PerformanceConfig
                0x9d1b1b70      0x104
 .text.SYS_DEVCON_PerformanceConfig
                0x9d1b1b70      0x104 build/default/debug/_ext/340578644/sys_devcon_pic32mz.o
                0x9d1b1b70                SYS_DEVCON_PerformanceConfig

.text.GAMMA_Tasks
                0x9d1b1c74      0x104
 .text.GAMMA_Tasks
                0x9d1b1c74      0x104 build/default/debug/_ext/1360937237/gamma.o
                0x9d1b1c74                GAMMA_Tasks

.text.DRV_SPI_MasterEBMSend16BitPolled
                0x9d1b1d78      0x100
 .text.DRV_SPI_MasterEBMSend16BitPolled
                0x9d1b1d78      0x100 build/default/debug/_ext/977502197/drv_spi_master_ebm_tasks.o
                0x9d1b1d78                DRV_SPI_MasterEBMSend16BitPolled

.text._IntHandlerChangeNotification_PortC
                0x9d1b1e78      0x100
 .text._IntHandlerChangeNotification_PortC
                0x9d1b1e78      0x100 build/default/debug/_ext/1688732426/system_interrupt.o
                0x9d1b1e78                _IntHandlerChangeNotification_PortC

.text._USB_DEVICE_ConfigureDevice
                0x9d1b1f78      0x100
 .text._USB_DEVICE_ConfigureDevice
                0x9d1b1f78      0x100 build/default/debug/_ext/419360567/usb_device.o
                0x9d1b1f78                _USB_DEVICE_ConfigureDevice

.text._USB_DEVICE_ProcessStandardEndpointRequest
                0x9d1b2078      0x100
 .text._USB_DEVICE_ProcessStandardEndpointRequest
                0x9d1b2078      0x100 build/default/debug/_ext/419360567/usb_device.o
                0x9d1b2078                _USB_DEVICE_ProcessStandardEndpointRequest

.text.strncpy   0x9d1b2178      0x100
 .text.strncpy  0x9d1b2178      0x100 c:/program files/microchip/xc32/v2.50/bin/bin/../../lib/gcc/pic32mx/4.8.3/../../../../pic32mx/lib/fpu64\liblega-c.a(strncpy.o)
                0x9d1b2178                strncpy

.text.SYS_CLK_Initialize
                0x9d1b2278       0xfc
 .text.SYS_CLK_Initialize
                0x9d1b2278       0xfc build/default/debug/_ext/639803181/sys_clk_pic32mz.o
                0x9d1b2278                SYS_CLK_Initialize

.text.DRV_SPI_SYS_QUEUE_AllocElement
                0x9d1b2374       0xfc
 .text.DRV_SPI_SYS_QUEUE_AllocElement
                0x9d1b2374       0xfc build/default/debug/_ext/1745438118/drv_spi_sys_queue_fifo.o
                0x9d1b2374                DRV_SPI_SYS_QUEUE_AllocElement

.text.f_mount   0x9d1b2470       0xf4
 .text.f_mount  0x9d1b2470       0xf4 build/default/debug/_ext/408548909/ff.o
                0x9d1b2470                f_mount

.text.strchr    0x9d1b2564       0xf4
 .text.strchr   0x9d1b2564       0xf4 c:/program files/microchip/xc32/v2.50/bin/bin/../../lib/gcc/pic32mx/4.8.3/../../../../pic32mx/lib/fpu64\liblega-c.a(strchr.o)
                0x9d1b2564                strchr

.text.DRV_SPI_PolledErrorTasks
                0x9d000010       0xe8
 .text.DRV_SPI_PolledErrorTasks
                0x9d000010       0xe8 build/default/debug/_ext/1415029366/drv_spi.o
                0x9d000010                DRV_SPI_PolledErrorTasks

.text.DRV_SPI_MasterEBMSend8BitPolled
                0x9d1b2658       0xe4
 .text.DRV_SPI_MasterEBMSend8BitPolled
                0x9d1b2658       0xe4 build/default/debug/_ext/977502197/drv_spi_master_ebm_tasks.o
                0x9d1b2658                DRV_SPI_MasterEBMSend8BitPolled

.text.APP_USBDeviceHIDEventHandler
                0x9d1b273c       0xe0
 .text.APP_USBDeviceHIDEventHandler
                0x9d1b273c       0xe0 build/default/debug/_ext/1360937237/hid.o
                0x9d1b273c                APP_USBDeviceHIDEventHandler

.text.SYS_FS_FileStat
                0x9d1b281c       0xe0
 .text.SYS_FS_FileStat
                0x9d1b281c       0xe0 build/default/debug/_ext/746721678/sys_fs.o
                0x9d1b281c                SYS_FS_FileStat

.text.f_unmount
                0x9d1b28fc       0xe0
 .text.f_unmount
                0x9d1b28fc       0xe0 build/default/debug/_ext/408548909/ff.o
                0x9d1b28fc                f_unmount

.text.strncmp   0x9d1b29dc       0xe0
 .text.strncmp  0x9d1b29dc       0xe0 c:/program files/microchip/xc32/v2.50/bin/bin/../../lib/gcc/pic32mx/4.8.3/../../../../pic32mx/lib/fpu64\liblega-c.a(strncmp.o)
                0x9d1b29dc                strncmp

.text.GAMMA_Counts
                0x9d1b2abc       0xdc
 .text.GAMMA_Counts
                0x9d1b2abc       0xdc build/default/debug/_ext/1360937237/gamma.o
                0x9d1b2abc                GAMMA_Counts

.text.remove_chain
                0x9d1b2b98       0xdc
 .text.remove_chain
                0x9d1b2b98       0xdc build/default/debug/_ext/408548909/ff.o

.text.general_exception
                0x9d1b2c74       0xdc
 .text.general_exception
                0x9d1b2c74       0xdc c:/program files/microchip/xc32/v2.50/bin/bin/../../lib/gcc/pic32mx/4.8.3/../../../../pic32mx/lib/fpu64\libpic32.a(general-exception.o)
                0x9d1b2c74                _general_exception_context

.text._cache_err_exception_context
                0x9d1b2d50       0xd8
 .text._cache_err_exception_context
                0x9d1b2d50       0xd8 c:/program files/microchip/xc32/v2.50/bin/bin/../../lib/gcc/pic32mx/4.8.3/../../../../pic32mx/lib/fpu64\libpic32.a(cache-err-exception.o)
                0x9d1b2d50                _cache_err_exception_context

.text.simple_tlb_refill_context
                0x9d1b2e28       0xd8
 .text.simple_tlb_refill_context
                0x9d1b2e28       0xd8 c:/program files/microchip/xc32/v2.50/bin/bin/../../lib/gcc/pic32mx/4.8.3/../../../../pic32mx/lib/fpu64\libpic32.a(simple-tlb-refill-exception.o)
                0x9d1b2e28                _simple_tlb_refill_exception_context

.text.check_fs  0x9d1b2f00       0xd4
 .text.check_fs
                0x9d1b2f00       0xd4 build/default/debug/_ext/408548909/ff.o

.text.DRV_SPI_MasterEBMReceive16BitPolled
                0x9d1b2fd4       0xd0
 .text.DRV_SPI_MasterEBMReceive16BitPolled
                0x9d1b2fd4       0xd0 build/default/debug/_ext/977502197/drv_spi_master_ebm_tasks.o
                0x9d1b2fd4                DRV_SPI_MasterEBMReceive16BitPolled

.text.DRV_NVM_Open
                0x9d1b30a4       0xd0
 .text.DRV_NVM_Open
                0x9d1b30a4       0xd0 build/default/debug/_ext/274850301/drv_nvm.o
                0x9d1b30a4                DRV_NVM_Open

.text.SYS_FS_FileWrite
                0x9d1b3174       0xd0
 .text.SYS_FS_FileWrite
                0x9d1b3174       0xd0 build/default/debug/_ext/746721678/sys_fs.o
                0x9d1b3174                SYS_FS_FileWrite

.text.f_readdir
                0x9d1b3244       0xd0
 .text.f_readdir
                0x9d1b3244       0xd0 build/default/debug/_ext/408548909/ff.o
                0x9d1b3244                f_readdir

.text._USB_DEVICE_GetStringDescriptorRequestProcess
                0x9d1b3314       0xd0
 .text._USB_DEVICE_GetStringDescriptorRequestProcess
                0x9d1b3314       0xd0 build/default/debug/_ext/419360567/usb_device.o
                0x9d1b3314                _USB_DEVICE_GetStringDescriptorRequestProcess

.text.APP_USBDeviceEventHandler
                0x9d1b33e4       0xcc
 .text.APP_USBDeviceEventHandler
                0x9d1b33e4       0xcc build/default/debug/_ext/1360937237/hid.o
                0x9d1b33e4                APP_USBDeviceEventHandler

.text.SYS_FS_FileRead
                0x9d1b34b0       0xcc
 .text.SYS_FS_FileRead
                0x9d1b34b0       0xcc build/default/debug/_ext/746721678/sys_fs.o
                0x9d1b34b0                SYS_FS_FileRead

.text.SYS_FS_FileTell
                0x9d1b357c       0xcc
 .text.SYS_FS_FileTell
                0x9d1b357c       0xcc build/default/debug/_ext/746721678/sys_fs.o
                0x9d1b357c                SYS_FS_FileTell

.text.SYS_FS_FileSize
                0x9d1b3648       0xcc
 .text.SYS_FS_FileSize
                0x9d1b3648       0xcc build/default/debug/_ext/746721678/sys_fs.o
                0x9d1b3648                SYS_FS_FileSize

.text.sync_window
                0x9d1b3714       0xcc
 .text.sync_window
                0x9d1b3714       0xcc build/default/debug/_ext/408548909/ff.o

.text.f_chmod   0x9d1b37e0       0xcc
 .text.f_chmod  0x9d1b37e0       0xcc build/default/debug/_ext/408548909/ff.o
                0x9d1b37e0                f_chmod

.text.f_utime   0x9d1b38ac       0xcc
 .text.f_utime  0x9d1b38ac       0xcc build/default/debug/_ext/408548909/ff.o
                0x9d1b38ac                f_utime

.text.dir_remove
                0x9d1b3978       0xcc
 .text.dir_remove
                0x9d1b3978       0xcc build/default/debug/_ext/408548909/ff.o

.text._DRV_USBHS_DEVICE_FIFOFree
                0x9d1b3a44       0xc8
 .text._DRV_USBHS_DEVICE_FIFOFree
                0x9d1b3a44       0xc8 build/default/debug/_ext/1329795486/drv_usbhs_device.o
                0x9d1b3a44                _DRV_USBHS_DEVICE_FIFOFree

.text.SYS_FS_FileClose
                0x9d1b3b0c       0xc8
 .text.SYS_FS_FileClose
                0x9d1b3b0c       0xc8 build/default/debug/_ext/746721678/sys_fs.o
                0x9d1b3b0c                SYS_FS_FileClose

.text.SYS_FS_FileSync
                0x9d1b3bd4       0xc4
 .text.SYS_FS_FileSync
                0x9d1b3bd4       0xc4 build/default/debug/_ext/746721678/sys_fs.o
                0x9d1b3bd4                SYS_FS_FileSync

.text.SYS_TMR_Initialize
                0x9d1b3c98       0xc0
 .text.SYS_TMR_Initialize
                0x9d1b3c98       0xc0 build/default/debug/_ext/945675698/sys_tmr.o
                0x9d1b3c98                SYS_TMR_Initialize

.text._USB_DEVICE_Ep0TransmitCompleteCallback
                0x9d1b3d58       0xc0
 .text._USB_DEVICE_Ep0TransmitCompleteCallback
                0x9d1b3d58       0xc0 build/default/debug/_ext/419360567/usb_device.o
                0x9d1b3d58                _USB_DEVICE_Ep0TransmitCompleteCallback

.text.DRV_SPI_MasterEBMReceive8BitPolled
                0x9d1b3e18       0xbc
 .text.DRV_SPI_MasterEBMReceive8BitPolled
                0x9d1b3e18       0xbc build/default/debug/_ext/977502197/drv_spi_master_ebm_tasks.o
                0x9d1b3e18                DRV_SPI_MasterEBMReceive8BitPolled

.tlb.__pic32_tlb_init_ebi_sqi
                0x9d1b3ed4       0xbc
 .tlb.__pic32_tlb_init_ebi_sqi
                0x9d1b3ed4       0xbc c:/program files/microchip/xc32/v2.50/bin/bin/../../lib/gcc/pic32mx/4.8.3/../../../../pic32mx/lib/fpu64\libpic32.a(pic32_init_tlb_ebi_sqi.o)
                0x9d1b3ed4                __pic32_tlb_init_ebi_sqi

.text.DRV_SPI_SYS_QUEUE_FreeElement
                0x9d1b3f90       0xb8
 .text.DRV_SPI_SYS_QUEUE_FreeElement
                0x9d1b3f90       0xb8 build/default/debug/_ext/1745438118/drv_spi_sys_queue_fifo.o
                0x9d1b3f90                DRV_SPI_SYS_QUEUE_FreeElement

.text.DRV_USBHS_Initialize
                0x9d1b4048       0xb8
 .text.DRV_USBHS_Initialize
                0x9d1b4048       0xb8 build/default/debug/_ext/1329795486/drv_usbhs.o
                0x9d1b4048                DRV_USBHS_Initialize

.text.DRV_USBHS_Open
                0x9d1b4100       0xb8
 .text.DRV_USBHS_Open
                0x9d1b4100       0xb8 build/default/debug/_ext/1329795486/drv_usbhs.o
                0x9d1b4100                DRV_USBHS_Open

.text.f_chdir   0x9d1b41b8       0xb8
 .text.f_chdir  0x9d1b41b8       0xb8 build/default/debug/_ext/408548909/ff.o
                0x9d1b41b8                f_chdir

.text.DRV_USBHS_Tasks_ISR
                0x9d1b4270       0xb4
 .text.DRV_USBHS_Tasks_ISR
                0x9d1b4270       0xb4 build/default/debug/_ext/1329795486/drv_usbhs.o
                0x9d1b4270                DRV_USBHS_Tasks_ISR

.text.SYS_FS_MEDIA_MANAGER_MediaStatusGet
                0x9d1b4324       0xb4
 .text.SYS_FS_MEDIA_MANAGER_MediaStatusGet
                0x9d1b4324       0xb4 build/default/debug/_ext/746721678/sys_fs_media_manager.o
                0x9d1b4324                SYS_FS_MEDIA_MANAGER_MediaStatusGet

.text.dir_alloc
                0x9d1b43d8       0xb4
 .text.dir_alloc
                0x9d1b43d8       0xb4 build/default/debug/_ext/408548909/ff.o

.text.SYS_FS_FileEOF
                0x9d1b448c       0xb0
 .text.SYS_FS_FileEOF
                0x9d1b448c       0xb0 build/default/debug/_ext/746721678/sys_fs.o
                0x9d1b448c                SYS_FS_FileEOF

.text._USB_DEVICE_HID_ReportSendCallBack
                0x9d1b453c       0xb0
 .text._USB_DEVICE_HID_ReportSendCallBack
                0x9d1b453c       0xb0 build/default/debug/_ext/419360567/usb_device_hid.o
                0x9d1b453c                _USB_DEVICE_HID_ReportSendCallBack

.text._USB_DEVICE_HID_ReportReceiveCallBack
                0x9d1b45ec       0xb0
 .text._USB_DEVICE_HID_ReportReceiveCallBack
                0x9d1b45ec       0xb0 build/default/debug/_ext/419360567/usb_device_hid.o
                0x9d1b45ec                _USB_DEVICE_HID_ReportReceiveCallBack

.text._DRV_NVM_UnlockSequence
                0x9d1b469c       0xac
 .text._DRV_NVM_UnlockSequence
                0x9d1b469c       0xac build/default/debug/_ext/274850301/drv_nvm.o
                0x9d1b469c                _DRV_NVM_UnlockSequence

.text.inc_lock  0x9d1b4748       0xac
 .text.inc_lock
                0x9d1b4748       0xac build/default/debug/_ext/408548909/ff.o

.text.f_gets    0x9d1b47f4       0xac
 .text.f_gets   0x9d1b47f4       0xac build/default/debug/_ext/408548909/ff.o
                0x9d1b47f4                f_gets

.text.CLASSB_RAMMarchCStackTest
                0x9d1b48a0       0xa8
 .text.CLASSB_RAMMarchCStackTest
                0x9d1b48a0       0xa8 build/default/debug/_ext/2062801281/CLASSB_RAMMarchCStackTest.o
                0x9d1b48a0                CLASSB_RAMMarchCStackTest

.text.DRV_USBHS_Tasks_ISR_USBDMA
                0x9d1b4948       0xa8
 .text.DRV_USBHS_Tasks_ISR_USBDMA
                0x9d1b4948       0xa8 build/default/debug/_ext/1329795486/drv_usbhs.o
                0x9d1b4948                DRV_USBHS_Tasks_ISR_USBDMA

.text._USB_DEVICE_DeInitializeAllFunctionDrivers
                0x9d1b49f0       0xa8
 .text._USB_DEVICE_DeInitializeAllFunctionDrivers
                0x9d1b49f0       0xa8 build/default/debug/_ext/419360567/usb_device.o
                0x9d1b49f0                _USB_DEVICE_DeInitializeAllFunctionDrivers

.text           0x9d1b4a98       0xa8
 .text          0x9d1b4a98       0xa8 c:/program files/microchip/xc32/v2.50/bin/bin/../../lib/gcc/pic32mx/4.8.3/../../../../pic32mx/lib/fpu64\libpic32.a(memset.o)
                0x9d1b4a98                memset

.text.Valid_Command
                0x9d1b4b40       0xa4
 .text.Valid_Command
                0x9d1b4b40       0xa4 build/default/debug/_ext/1360937237/commands.o
                0x9d1b4b40                Valid_Command

.text._DRV_USBHS_DEVICE_AttachStateMachine
                0x9d1b4be4       0xa4
 .text._DRV_USBHS_DEVICE_AttachStateMachine
                0x9d1b4be4       0xa4 build/default/debug/_ext/1329795486/drv_usbhs_device.o
                0x9d1b4be4                _DRV_USBHS_DEVICE_AttachStateMachine

.text.get_ldnumber
                0x9d1b4c88       0xa4
 .text.get_ldnumber
                0x9d1b4c88       0xa4 build/default/debug/_ext/408548909/ff.o

.text.DRV_TMR_Start
                0x9d1b4d2c       0xa0
 .text.DRV_TMR_Start
                0x9d1b4d2c       0xa0 build/default/debug/_ext/1407244131/drv_tmr_mapping.o
                0x9d1b4d2c                DRV_TMR_Start

.text.DRV_TMR_CounterFrequencyGet
                0x9d1b4dcc       0xa0
 .text.DRV_TMR_CounterFrequencyGet
                0x9d1b4dcc       0xa0 build/default/debug/_ext/1407244131/drv_tmr_mapping.o
                0x9d1b4dcc                DRV_TMR_CounterFrequencyGet

.text.GAMMA_Gain
                0x9d1b4e6c       0xa0
 .text.GAMMA_Gain
                0x9d1b4e6c       0xa0 build/default/debug/_ext/1360937237/gamma.o
                0x9d1b4e6c                GAMMA_Gain

.text._DRV_SPI_SYS_QUEUE_LockQueue
                0x9d1b4f0c       0x9c
 .text._DRV_SPI_SYS_QUEUE_LockQueue
                0x9d1b4f0c       0x9c build/default/debug/_ext/1745438118/drv_spi_sys_queue_fifo.o
                0x9d1b4f0c                _DRV_SPI_SYS_QUEUE_LockQueue

.text.SYS_FS_MEDIA_MANAGER_SectorRead
                0x9d1b4fa8       0x9c
 .text.SYS_FS_MEDIA_MANAGER_SectorRead
                0x9d1b4fa8       0x9c build/default/debug/_ext/746721678/sys_fs_media_manager.o
                0x9d1b4fa8                SYS_FS_MEDIA_MANAGER_SectorRead

.text._USB_DEVICE_ForwardControlXfrToFunction
                0x9d1b5044       0x9c
 .text._USB_DEVICE_ForwardControlXfrToFunction
                0x9d1b5044       0x9c build/default/debug/_ext/419360567/usb_device.o
                0x9d1b5044                _USB_DEVICE_ForwardControlXfrToFunction

.text.IntHandlerDrvTmrInstance1
                0x9d1b50e0       0x98
 .text.IntHandlerDrvTmrInstance1
                0x9d1b50e0       0x98 build/default/debug/_ext/1688732426/system_interrupt.o
                0x9d1b50e0                IntHandlerDrvTmrInstance1

.text.f_puts    0x9d1b5178       0x98
 .text.f_puts   0x9d1b5178       0x98 build/default/debug/_ext/408548909/ff.o
                0x9d1b5178                f_puts

.text           0x9d1b5210       0x98
 .text          0x9d1b5210       0x98 c:/program files/microchip/xc32/v2.50/bin/bin/../../lib/gcc/pic32mx/4.8.3/../../../../pic32mx/lib/fpu64\libpic32.a(memcmp.o)
                0x9d1b5210                memcmp

.text.DRV_TMR_Close
                0x9d1b52a8       0x94
 .text.DRV_TMR_Close
                0x9d1b52a8       0x94 build/default/debug/_ext/1407244131/drv_tmr_mapping.o
                0x9d1b52a8                DRV_TMR_Close

.text.chk_lock  0x9d1b533c       0x94
 .text.chk_lock
                0x9d1b533c       0x94 build/default/debug/_ext/408548909/ff.o

.text.f_stat    0x9d1b53d0       0x94
 .text.f_stat   0x9d1b53d0       0x94 build/default/debug/_ext/408548909/ff.o
                0x9d1b53d0                f_stat

.text.DRV_TMR5_Initialize
                0x9d1b5464       0x90
 .text.DRV_TMR5_Initialize
                0x9d1b5464       0x90 build/default/debug/_ext/1407244131/drv_tmr_static.o
                0x9d1b5464                DRV_TMR5_Initialize

.text.DRV_USBHS_ClientEventCallBackSet
                0x9d1b54f4       0x90
 .text.DRV_USBHS_ClientEventCallBackSet
                0x9d1b54f4       0x90 build/default/debug/_ext/1329795486/drv_usbhs.o
                0x9d1b54f4                DRV_USBHS_ClientEventCallBackSet

.text.SYS_FS_Initialize
                0x9d1b5584       0x90
 .text.SYS_FS_Initialize
                0x9d1b5584       0x90 build/default/debug/_ext/746721678/sys_fs.o
                0x9d1b5584                SYS_FS_Initialize

.text.SYS_FS_MEDIA_MANAGER_VolumePropertyGet
                0x9d1b5614       0x90
 .text.SYS_FS_MEDIA_MANAGER_VolumePropertyGet
                0x9d1b5614       0x90 build/default/debug/_ext/746721678/sys_fs_media_manager.o
                0x9d1b5614                SYS_FS_MEDIA_MANAGER_VolumePropertyGet

.text.IntHandlerDrvTmrInstance0
                0x9d1b56a4       0x8c
 .text.IntHandlerDrvTmrInstance0
                0x9d1b56a4       0x8c build/default/debug/_ext/1688732426/system_interrupt.o
                0x9d1b56a4                IntHandlerDrvTmrInstance0

.text.IntHandlerDrvTmrInstance2
                0x9d1b5730       0x8c
 .text.IntHandlerDrvTmrInstance2
                0x9d1b5730       0x8c build/default/debug/_ext/1688732426/system_interrupt.o
                0x9d1b5730                IntHandlerDrvTmrInstance2

.text.IntHandlerDrvTmrInstance3
                0x9d1b57bc       0x8c
 .text.IntHandlerDrvTmrInstance3
                0x9d1b57bc       0x8c build/default/debug/_ext/1688732426/system_interrupt.o
                0x9d1b57bc                IntHandlerDrvTmrInstance3

.text.SYSTEM_OKAY_Tasks
                0x9d1b5848       0x8c
 .text.SYSTEM_OKAY_Tasks
                0x9d1b5848       0x8c build/default/debug/_ext/1360937237/system_okay.o
                0x9d1b5848                SYSTEM_OKAY_Tasks

.text.Alarm_GPT
                0x9d1b58d4       0x88
 .text.Alarm_GPT
                0x9d1b58d4       0x88 build/default/debug/_ext/1360937237/gpt.o
                0x9d1b58d4                Alarm_GPT

.text.Init_GPT  0x9d1b595c       0x88
 .text.Init_GPT
                0x9d1b595c       0x88 build/default/debug/_ext/1360937237/gpt.o
                0x9d1b595c                Init_GPT

.text._USB_DEVICE_HID_DeInitialize
                0x9d1b59e4       0x88
 .text._USB_DEVICE_HID_DeInitialize
                0x9d1b59e4       0x88 build/default/debug/_ext/419360567/usb_device_hid.o
                0x9d1b59e4                _USB_DEVICE_HID_DeInitialize

.text._DRV_SPI_SYS_QUEUE_UnlockQueue
                0x9d1b5a6c       0x84
 .text._DRV_SPI_SYS_QUEUE_UnlockQueue
                0x9d1b5a6c       0x84 build/default/debug/_ext/1745438118/drv_spi_sys_queue_fifo.o
                0x9d1b5a6c                _DRV_SPI_SYS_QUEUE_UnlockQueue

.text._USB_DEVICE_GetFunctionDriverEntryByInterface
                0x9d1b5af0       0x84
 .text._USB_DEVICE_GetFunctionDriverEntryByInterface
                0x9d1b5af0       0x84 build/default/debug/_ext/419360567/usb_device.o
                0x9d1b5af0                _USB_DEVICE_GetFunctionDriverEntryByInterface

.text._USB_DEVICE_FindEndpoint
                0x9d1b5b74       0x84
 .text._USB_DEVICE_FindEndpoint
                0x9d1b5b74       0x84 build/default/debug/_ext/419360567/usb_device.o
                0x9d1b5b74                _USB_DEVICE_FindEndpoint

.text.USB_DEVICE_ControlSend
                0x9d1b5bf8       0x84
 .text.USB_DEVICE_ControlSend
                0x9d1b5bf8       0x84 build/default/debug/_ext/419360567/usb_device.o
                0x9d1b5bf8                USB_DEVICE_ControlSend

.text           0x9d1b5c7c       0x84
 .text          0x9d1b5c7c       0x84 c:/program files/microchip/xc32/v2.50/bin/bin/../../lib/gcc/pic32mx/4.8.3/../../../../pic32mx/lib/fpu64\libpic32.a(pic32_data_init.o)
                0x9d1b5c7c                __pic32_data_init

.text.DRV_SPI_SetVTable
                0x9d1b5d00       0x80
 .text.DRV_SPI_SetVTable
                0x9d1b5d00       0x80 build/default/debug/_ext/977502197/drv_spi_api.o
                0x9d1b5d00                DRV_SPI_SetVTable

.text.Fifo_Put  0x9d1b5d80       0x80
 .text.Fifo_Put
                0x9d1b5d80       0x80 build/default/debug/_ext/1360937237/fifo.o
                0x9d1b5d80                Fifo_Put

.text.putc_bfd  0x9d1b5e00       0x80
 .text.putc_bfd
                0x9d1b5e00       0x80 build/default/debug/_ext/408548909/ff.o

.text.disk_write
                0x9d1b5e80       0x80
 .text.disk_write
                0x9d1b5e80       0x80 build/default/debug/_ext/1290481162/diskio.o
                0x9d1b5e80                disk_write

.text.DRV_TMR0_Initialize
                0x9d1b5f00       0x7c
 .text.DRV_TMR0_Initialize
                0x9d1b5f00       0x7c build/default/debug/_ext/1407244131/drv_tmr_static.o
                0x9d1b5f00                DRV_TMR0_Initialize

.text.DRV_TMR2_Initialize
                0x9d1b5f7c       0x7c
 .text.DRV_TMR2_Initialize
                0x9d1b5f7c       0x7c build/default/debug/_ext/1407244131/drv_tmr_static.o
                0x9d1b5f7c                DRV_TMR2_Initialize

.text.move_window
                0x9d1b5ff8       0x7c
 .text.move_window
                0x9d1b5ff8       0x7c build/default/debug/_ext/408548909/ff.o

.text.f_putc    0x9d1b6074       0x7c
 .text.f_putc   0x9d1b6074       0x7c build/default/debug/_ext/408548909/ff.o
                0x9d1b6074                f_putc

.text.USB_DEVICE_ControlStatus
                0x9d1b60f0       0x7c
 .text.USB_DEVICE_ControlStatus
                0x9d1b60f0       0x7c build/default/debug/_ext/419360567/usb_device.o
                0x9d1b60f0                USB_DEVICE_ControlStatus

.text.SYS_Tasks
                0x9d1b616c       0x78
 .text.SYS_Tasks
                0x9d1b616c       0x78 build/default/debug/_ext/1688732426/system_tasks.o
                0x9d1b616c                SYS_Tasks

.text.Fifo_Get  0x9d1b61e4       0x78
 .text.Fifo_Get
                0x9d1b61e4       0x78 build/default/debug/_ext/1360937237/fifo.o
                0x9d1b61e4                Fifo_Get

.text.f_getclusters
                0x9d1b625c       0x78
 .text.f_getclusters
                0x9d1b625c       0x78 build/default/debug/_ext/408548909/ff.o
                0x9d1b625c                f_getclusters

.text.disk_ioctl
                0x9d1b62d4       0x78
 .text.disk_ioctl
                0x9d1b62d4       0x78 build/default/debug/_ext/1290481162/diskio.o
                0x9d1b62d4                disk_ioctl

.text.DRV_TMR1_Initialize
                0x9d1b634c       0x74
 .text.DRV_TMR1_Initialize
                0x9d1b634c       0x74 build/default/debug/_ext/1407244131/drv_tmr_static.o
                0x9d1b634c                DRV_TMR1_Initialize

.text.APP_Tasks
                0x9d1b63c0       0x74
 .text.APP_Tasks
                0x9d1b63c0       0x74 build/default/debug/_ext/1360937237/app.o
                0x9d1b63c0                APP_Tasks

.text.DRV_NVM_CommandStatus
                0x9d1b6434       0x74
 .text.DRV_NVM_CommandStatus
                0x9d1b6434       0x74 build/default/debug/_ext/274850301/drv_nvm.o
                0x9d1b6434                DRV_NVM_CommandStatus

.text.validate  0x9d1b64a8       0x74
 .text.validate
                0x9d1b64a8       0x74 build/default/debug/_ext/408548909/ff.o

.text.f_closedir
                0x9d1b651c       0x74
 .text.f_closedir
                0x9d1b651c       0x74 build/default/debug/_ext/408548909/ff.o
                0x9d1b651c                f_closedir

.text.disk_read
                0x9d1b6590       0x74
 .text.disk_read
                0x9d1b6590       0x74 build/default/debug/_ext/1290481162/diskio.o
                0x9d1b6590                disk_read

.text.Init_Fifo
                0x9d000110       0x70
 .text.Init_Fifo
                0x9d000110       0x70 build/default/debug/_ext/1360937237/fifo.o
                0x9d000110                Init_Fifo

.text.SYS_FS_MEDIA_MANAGER_IsFSFat
                0x9d000190       0x70
 .text.SYS_FS_MEDIA_MANAGER_IsFSFat
                0x9d000190       0x70 build/default/debug/_ext/746721678/sys_fs_media_manager.o

.text.DRV_TMR3_Initialize
                0x9d1b6604       0x6c
 .text.DRV_TMR3_Initialize
                0x9d1b6604       0x6c build/default/debug/_ext/1407244131/drv_tmr_static.o
                0x9d1b6604                DRV_TMR3_Initialize

.text.DRV_TMR3_CounterFrequencyGet
                0x9d1b6670       0x6c
 .text.DRV_TMR3_CounterFrequencyGet
                0x9d1b6670       0x6c build/default/debug/_ext/1407244131/drv_tmr_static.o
                0x9d1b6670                DRV_TMR3_CounterFrequencyGet

.text.DRV_TMR5_Tasks
                0x9d1b66dc       0x6c
 .text.DRV_TMR5_Tasks
                0x9d1b66dc       0x6c build/default/debug/_ext/1407244131/drv_tmr_static.o
                0x9d1b66dc                DRV_TMR5_Tasks

.text.DRV_USBHS_DEVICE_Attach
                0x9d1b6748       0x6c
 .text.DRV_USBHS_DEVICE_Attach
                0x9d1b6748       0x6c build/default/debug/_ext/1329795486/drv_usbhs_device.o
                0x9d1b6748                DRV_USBHS_DEVICE_Attach

.text.GPT_TimerCallback
                0x9d1b67b4       0x68
 .text.GPT_TimerCallback
                0x9d1b67b4       0x68 build/default/debug/_ext/1360937237/gpt.o
                0x9d1b67b4                GPT_TimerCallback

.text.DRV_NVM_Erase
                0x9d1b681c       0x68
 .text.DRV_NVM_Erase
                0x9d1b681c       0x68 build/default/debug/_ext/274850301/drv_nvm.o
                0x9d1b681c                DRV_NVM_Erase

.text.DRV_SPI_SYS_QUEUE_Dequeue
                0x9d1b6884       0x68
 .text.DRV_SPI_SYS_QUEUE_Dequeue
                0x9d1b6884       0x68 build/default/debug/_ext/1745438118/drv_spi_sys_queue_fifo.o
                0x9d1b6884                DRV_SPI_SYS_QUEUE_Dequeue

.text.APP_Initialize
                0x9d1b68ec       0x64
 .text.APP_Initialize
                0x9d1b68ec       0x64 build/default/debug/_ext/1360937237/app.o
                0x9d1b68ec                APP_Initialize

.text._DRV_USBHS_DEVICE_IRPQueueFlush
                0x9d1b6950       0x64
 .text._DRV_USBHS_DEVICE_IRPQueueFlush
                0x9d1b6950       0x64 build/default/debug/_ext/1329795486/drv_usbhs_device.o
                0x9d1b6950                _DRV_USBHS_DEVICE_IRPQueueFlush

.text._DRV_USBHS_DEVICE_Get_FreeDMAChannel
                0x9d1b69b4       0x64
 .text._DRV_USBHS_DEVICE_Get_FreeDMAChannel
                0x9d1b69b4       0x64 build/default/debug/_ext/1329795486/drv_usbhs_device.o
                0x9d1b69b4                _DRV_USBHS_DEVICE_Get_FreeDMAChannel

.text.dec_lock  0x9d1b6a18       0x64
 .text.dec_lock
                0x9d1b6a18       0x64 build/default/debug/_ext/408548909/ff.o

.text.HID_Initialize
                0x9d1b6a7c       0x60
 .text.HID_Initialize
                0x9d1b6a7c       0x60 build/default/debug/_ext/1360937237/hid.o
                0x9d1b6a7c                HID_Initialize

.text.DRV_SPI_SYS_QUEUE_AllocElementLock
                0x9d1b6adc       0x60
 .text.DRV_SPI_SYS_QUEUE_AllocElementLock
                0x9d1b6adc       0x60 build/default/debug/_ext/1745438118/drv_spi_sys_queue_fifo.o
                0x9d1b6adc                DRV_SPI_SYS_QUEUE_AllocElementLock

.text.DRV_SPI_SYS_QUEUE_FreeElementLock
                0x9d1b6b3c       0x60
 .text.DRV_SPI_SYS_QUEUE_FreeElementLock
                0x9d1b6b3c       0x60 build/default/debug/_ext/1745438118/drv_spi_sys_queue_fifo.o
                0x9d1b6b3c                DRV_SPI_SYS_QUEUE_FreeElementLock

.text.DRV_SPI_SYS_QUEUE_EnqueueLock
                0x9d1b6b9c       0x60
 .text.DRV_SPI_SYS_QUEUE_EnqueueLock
                0x9d1b6b9c       0x60 build/default/debug/_ext/1745438118/drv_spi_sys_queue_fifo.o
                0x9d1b6b9c                DRV_SPI_SYS_QUEUE_EnqueueLock

.text.DRV_SPI_SYS_QUEUE_DequeueLock
                0x9d1b6bfc       0x60
 .text.DRV_SPI_SYS_QUEUE_DequeueLock
                0x9d1b6bfc       0x60 build/default/debug/_ext/1745438118/drv_spi_sys_queue_fifo.o
                0x9d1b6bfc                DRV_SPI_SYS_QUEUE_DequeueLock

.text.SYS_FS_MEDIA_MANAGER_EventHandler
                0x9d1b6c5c       0x60
 .text.SYS_FS_MEDIA_MANAGER_EventHandler
                0x9d1b6c5c       0x60 build/default/debug/_ext/746721678/sys_fs_media_manager.o
                0x9d1b6c5c                SYS_FS_MEDIA_MANAGER_EventHandler

.text.SYS_FS_MEDIA_MANAGER_Register
                0x9d1b6cbc       0x5c
 .text.SYS_FS_MEDIA_MANAGER_Register
                0x9d1b6cbc       0x5c build/default/debug/_ext/746721678/sys_fs_media_manager.o
                0x9d1b6cbc                SYS_FS_MEDIA_MANAGER_Register

.text.USB_DEVICE_EndpointEnable
                0x9d1b6d18       0x5c
 .text.USB_DEVICE_EndpointEnable
                0x9d1b6d18       0x5c build/default/debug/_ext/419360567/usb_device.o
                0x9d1b6d18                USB_DEVICE_EndpointEnable

.text.SYS_DEVCON_SystemUnlock
                0x9d1b6d74       0x58
 .text.SYS_DEVCON_SystemUnlock
                0x9d1b6d74       0x58 build/default/debug/_ext/340578644/sys_devcon.o
                0x9d1b6d74                SYS_DEVCON_SystemUnlock

.text.USB_DEVICE_EventHandlerSet
                0x9d1b6dcc       0x58
 .text.USB_DEVICE_EventHandlerSet
                0x9d1b6dcc       0x58 build/default/debug/_ext/419360567/usb_device.o
                0x9d1b6dcc                USB_DEVICE_EventHandlerSet

.text.USB_DEVICE_IRPSubmit
                0x9d1b6e24       0x58
 .text.USB_DEVICE_IRPSubmit
                0x9d1b6e24       0x58 build/default/debug/_ext/419360567/usb_device.o
                0x9d1b6e24                USB_DEVICE_IRPSubmit

.text.DRV_TMR5_AlarmRegister
                0x9d1b6e7c       0x54
 .text.DRV_TMR5_AlarmRegister
                0x9d1b6e7c       0x54 build/default/debug/_ext/1407244131/drv_tmr_static.o
                0x9d1b6e7c                DRV_TMR5_AlarmRegister

.text.f_close   0x9d1b6ed0       0x54
 .text.f_close  0x9d1b6ed0       0x54 build/default/debug/_ext/408548909/ff.o
                0x9d1b6ed0                f_close

.text.SYS_INT_SourceDisable
                0x9d1b6f24       0x54
 .text.SYS_INT_SourceDisable
                0x9d1b6f24       0x54 build/default/debug/_ext/2087805404/sys_int_pic32.o
                0x9d1b6f24                SYS_INT_SourceDisable

.text.main_entry
                0x9d1b6f78       0x54
 .text.main_entry
                0x9d1b6f78       0x54 C:\Users\DAVID~1.DOB\AppData\Local\Temp\cchLGtk6.o
                0x9d1b6fac                __crt0_exit

.text.DRV_TMR_Open
                0x9d1b6fcc       0x50
 .text.DRV_TMR_Open
                0x9d1b6fcc       0x50 build/default/debug/_ext/1407244131/drv_tmr_mapping.o
                0x9d1b6fcc                DRV_TMR_Open

.text.DRV_USART_ReadByte
                0x9d1b701c       0x50
 .text.DRV_USART_ReadByte
                0x9d1b701c       0x50 build/default/debug/_ext/327000265/drv_usart_mapping.o
                0x9d1b701c                DRV_USART_ReadByte

.text.DRV_USART_ReceiverBufferIsEmpty
                0x9d1b706c       0x50
 .text.DRV_USART_ReceiverBufferIsEmpty
                0x9d1b706c       0x50 build/default/debug/_ext/327000265/drv_usart_mapping.o
                0x9d1b706c                DRV_USART_ReceiverBufferIsEmpty

.text.SYS_CLK_PeripheralFrequencyGet
                0x9d1b70bc       0x50
 .text.SYS_CLK_PeripheralFrequencyGet
                0x9d1b70bc       0x50 build/default/debug/_ext/639803181/sys_clk_pic32mz.o
                0x9d1b70bc                SYS_CLK_PeripheralFrequencyGet

.text.DRV_SPI_SYS_QUEUE_Enqueue
                0x9d1b710c       0x50
 .text.DRV_SPI_SYS_QUEUE_Enqueue
                0x9d1b710c       0x50 build/default/debug/_ext/1745438118/drv_spi_sys_queue_fifo.o
                0x9d1b710c                DRV_SPI_SYS_QUEUE_Enqueue

.text.DRV_USBHS_DEVICE_EndpointIsEnabled
                0x9d1b715c       0x50
 .text.DRV_USBHS_DEVICE_EndpointIsEnabled
                0x9d1b715c       0x50 build/default/debug/_ext/1329795486/drv_usbhs_device.o
                0x9d1b715c                DRV_USBHS_DEVICE_EndpointIsEnabled

.text.DRV_USBHS_DEVICE_EndpointIsStalled
                0x9d1b71ac       0x50
 .text.DRV_USBHS_DEVICE_EndpointIsStalled
                0x9d1b71ac       0x50 build/default/debug/_ext/1329795486/drv_usbhs_device.o
                0x9d1b71ac                DRV_USBHS_DEVICE_EndpointIsStalled

.text.USB_DEVICE_Detach
                0x9d1b71fc       0x50
 .text.USB_DEVICE_Detach
                0x9d1b71fc       0x50 build/default/debug/_ext/419360567/usb_device.o
                0x9d1b71fc                USB_DEVICE_Detach

.text.DRV_TMR0_CounterFrequencyGet
                0x9d1b724c       0x4c
 .text.DRV_TMR0_CounterFrequencyGet
                0x9d1b724c       0x4c build/default/debug/_ext/1407244131/drv_tmr_static.o
                0x9d1b724c                DRV_TMR0_CounterFrequencyGet

.text.DRV_TMR1_CounterFrequencyGet
                0x9d1b7298       0x4c
 .text.DRV_TMR1_CounterFrequencyGet
                0x9d1b7298       0x4c build/default/debug/_ext/1407244131/drv_tmr_static.o
                0x9d1b7298                DRV_TMR1_CounterFrequencyGet

.text.DRV_TMR2_CounterFrequencyGet
                0x9d1b72e4       0x4c
 .text.DRV_TMR2_CounterFrequencyGet
                0x9d1b72e4       0x4c build/default/debug/_ext/1407244131/drv_tmr_static.o
                0x9d1b72e4                DRV_TMR2_CounterFrequencyGet

.text.DRV_TMR5_CounterFrequencyGet
                0x9d1b7330       0x4c
 .text.DRV_TMR5_CounterFrequencyGet
                0x9d1b7330       0x4c build/default/debug/_ext/1407244131/drv_tmr_static.o
                0x9d1b7330                DRV_TMR5_CounterFrequencyGet

.text.DRV_USART_Initialize
                0x9d1b737c       0x4c
 .text.DRV_USART_Initialize
                0x9d1b737c       0x4c build/default/debug/_ext/327000265/drv_usart_mapping.o
                0x9d1b737c                DRV_USART_Initialize

.text.DRV_USART_Open
                0x9d1b73c8       0x4c
 .text.DRV_USART_Open
                0x9d1b73c8       0x4c build/default/debug/_ext/327000265/drv_usart_mapping.o
                0x9d1b73c8                DRV_USART_Open

.text.GAMMA_Init
                0x9d1b7414       0x4c
 .text.GAMMA_Init
                0x9d1b7414       0x4c build/default/debug/_ext/1360937237/gamma.o
                0x9d1b7414                GAMMA_Init

.text.Flash_CRC16
                0x9d1b7460       0x4c
 .text.Flash_CRC16
                0x9d1b7460       0x4c build/default/debug/_ext/2062801281/CLASSB_CRCbyte.o
                0x9d1b7460                Flash_CRC16

.text.ReadOneWriteZero
                0x9d1b74ac       0x4c
 .text.ReadOneWriteZero
                0x9d1b74ac       0x4c build/default/debug/_ext/2062801281/CLASSB_RAMMarchCTest.o

.text.DRV_USBHS_DEVICE_CurrentSpeedGet
                0x9d1b74f8       0x4c
 .text.DRV_USBHS_DEVICE_CurrentSpeedGet
                0x9d1b74f8       0x4c build/default/debug/_ext/1329795486/drv_usbhs_device.o
                0x9d1b74f8                DRV_USBHS_DEVICE_CurrentSpeedGet

.text._DRV_USBHS_DEVICE_Initialize
                0x9d1b7544       0x4c
 .text._DRV_USBHS_DEVICE_Initialize
                0x9d1b7544       0x4c build/default/debug/_ext/1329795486/drv_usbhs_device.o
                0x9d1b7544                _DRV_USBHS_DEVICE_Initialize

.text.USB_DEVICE_Open
                0x9d1b7590       0x4c
 .text.USB_DEVICE_Open
                0x9d1b7590       0x4c build/default/debug/_ext/419360567/usb_device.o
                0x9d1b7590                USB_DEVICE_Open

.text._USB_DEVICE_RedirectControlXfrToClient
                0x9d1b75dc       0x4c
 .text._USB_DEVICE_RedirectControlXfrToClient
                0x9d1b75dc       0x4c build/default/debug/_ext/419360567/usb_device.o
                0x9d1b75dc                _USB_DEVICE_RedirectControlXfrToClient

.text.USB_DEVICE_HID_EventHandlerSet
                0x9d1b7628       0x4c
 .text.USB_DEVICE_HID_EventHandlerSet
                0x9d1b7628       0x4c build/default/debug/_ext/419360567/usb_device_hid.o
                0x9d1b7628                USB_DEVICE_HID_EventHandlerSet

.text.DRV_USART_Close
                0x9d1b7674       0x48
 .text.DRV_USART_Close
                0x9d1b7674       0x48 build/default/debug/_ext/327000265/drv_usart_mapping.o
                0x9d1b7674                DRV_USART_Close

.text.SYS_DEVCON_SystemLock
                0x9d1b76bc       0x48
 .text.SYS_DEVCON_SystemLock
                0x9d1b76bc       0x48 build/default/debug/_ext/340578644/sys_devcon.o
                0x9d1b76bc                SYS_DEVCON_SystemLock

.text.ReadZeroWriteOne
                0x9d1b7704       0x48
 .text.ReadZeroWriteOne
                0x9d1b7704       0x48 build/default/debug/_ext/2062801281/CLASSB_RAMMarchCTest.o

.text._DRV_NVM_WriteBufferObjProcess
                0x9d1b774c       0x48
 .text._DRV_NVM_WriteBufferObjProcess
                0x9d1b774c       0x48 build/default/debug/_ext/274850301/drv_nvm.o
                0x9d1b774c                _DRV_NVM_WriteBufferObjProcess

.text.SYS_FS_MEDIA_MANAGER_TransferTask
                0x9d1b7794       0x48
 .text.SYS_FS_MEDIA_MANAGER_TransferTask
                0x9d1b7794       0x48 build/default/debug/_ext/746721678/sys_fs_media_manager.o
                0x9d1b7794                SYS_FS_MEDIA_MANAGER_TransferTask

.text.USB_DEVICE_Attach
                0x9d1b77dc       0x48
 .text.USB_DEVICE_Attach
                0x9d1b77dc       0x48 build/default/debug/_ext/419360567/usb_device.o
                0x9d1b77dc                USB_DEVICE_Attach

.text.USB_DEVICE_EndpointDisable
                0x9d1b7824       0x48
 .text.USB_DEVICE_EndpointDisable
                0x9d1b7824       0x48 build/default/debug/_ext/419360567/usb_device.o
                0x9d1b7824                USB_DEVICE_EndpointDisable

.text.USB_DEVICE_IRPCancelAll
                0x9d1b786c       0x48
 .text.USB_DEVICE_IRPCancelAll
                0x9d1b786c       0x48 build/default/debug/_ext/419360567/usb_device.o
                0x9d1b786c                USB_DEVICE_IRPCancelAll

.text._bootstrap_exception_handler
                0x9d1b78b4       0x48
 .text._bootstrap_exception_handler
                0x9d1b78b4       0x48 c:/program files/microchip/xc32/v2.50/bin/bin/../../lib/gcc/pic32mx/4.8.3/../../../../pic32mx/lib/fpu64\libpic32.a(default-bootstrap-exception-handler.o)
                0x9d1b78b4                _bootstrap_exception_handler

.text._cache_err_exception_handler
                0x9d1b78fc       0x48
 .text._cache_err_exception_handler
                0x9d1b78fc       0x48 c:/program files/microchip/xc32/v2.50/bin/bin/../../lib/gcc/pic32mx/4.8.3/../../../../pic32mx/lib/fpu64\libpic32.a(default-cache-err-exception-handler.o)
                0x9d1b78fc                _cache_err_exception_handler

.text._simple_tlb_refill_exception_handler
                0x9d1b7944       0x48
 .text._simple_tlb_refill_exception_handler
                0x9d1b7944       0x48 c:/program files/microchip/xc32/v2.50/bin/bin/../../lib/gcc/pic32mx/4.8.3/../../../../pic32mx/lib/fpu64\libpic32.a(default-simple-tlb-refill-exception-handler.o)
                0x9d1b7944                _simple_tlb_refill_exception_handler

.text._DRV_NVM_ClientHandleValidate
                0x9d1b798c       0x44
 .text._DRV_NVM_ClientHandleValidate
                0x9d1b798c       0x44 build/default/debug/_ext/274850301/drv_nvm.o
                0x9d1b798c                _DRV_NVM_ClientHandleValidate

.text           0x9d1b79d0       0x44
 .text          0x9d1b79d0       0x44 c:/program files/microchip/xc32/v2.50/bin/bin/../../lib/gcc/pic32mx/4.8.3/../../../../pic32mx/lib/fpu64\pic32_software_reset.o
                0x9d1b79d0                __pic32_software_reset

.text.DRV_TMR0_Stop
                0x9d1b7a14       0x40
 .text.DRV_TMR0_Stop
                0x9d1b7a14       0x40 build/default/debug/_ext/1407244131/drv_tmr_static.o
                0x9d1b7a14                DRV_TMR0_Stop

.text.DRV_TMR1_Stop
                0x9d1b7a54       0x40
 .text.DRV_TMR1_Stop
                0x9d1b7a54       0x40 build/default/debug/_ext/1407244131/drv_tmr_static.o
                0x9d1b7a54                DRV_TMR1_Stop

.text.DRV_TMR2_Stop
                0x9d1b7a94       0x40
 .text.DRV_TMR2_Stop
                0x9d1b7a94       0x40 build/default/debug/_ext/1407244131/drv_tmr_static.o
                0x9d1b7a94                DRV_TMR2_Stop

.text.DRV_TMR3_Stop
                0x9d1b7ad4       0x40
 .text.DRV_TMR3_Stop
                0x9d1b7ad4       0x40 build/default/debug/_ext/1407244131/drv_tmr_static.o
                0x9d1b7ad4                DRV_TMR3_Stop

.text._general_exception_handler
                0x9d1b7b14       0x40
 .text._general_exception_handler
                0x9d1b7b14       0x40 build/default/debug/_ext/1688732426/system_exceptions.o
                0x9d1b7b14                _general_exception_handler

.text.DRV_NVM_EventHandlerSet
                0x9d1b7b54       0x40
 .text.DRV_NVM_EventHandlerSet
                0x9d1b7b54       0x40 build/default/debug/_ext/274850301/drv_nvm.o
                0x9d1b7b54                DRV_NVM_EventHandlerSet

.rodata         0x9d1b7b94       0x40
 .rodata        0x9d1b7b94       0x40 build/default/debug/_ext/1329795486/drv_usbhs_device.o

.text.ld_clust  0x9d1b7bd4       0x40
 .text.ld_clust
                0x9d1b7bd4       0x40 build/default/debug/_ext/408548909/ff.o

.text.DRV_TMR0_Start
                0x9d1b7c14       0x3c
 .text.DRV_TMR0_Start
                0x9d1b7c14       0x3c build/default/debug/_ext/1407244131/drv_tmr_static.o
                0x9d1b7c14                DRV_TMR0_Start

.text.DRV_TMR2_Start
                0x9d1b7c50       0x3c
 .text.DRV_TMR2_Start
                0x9d1b7c50       0x3c build/default/debug/_ext/1407244131/drv_tmr_static.o
                0x9d1b7c50                DRV_TMR2_Start

.text.DRV_TMR3_Start
                0x9d1b7c8c       0x3c
 .text.DRV_TMR3_Start
                0x9d1b7c8c       0x3c build/default/debug/_ext/1407244131/drv_tmr_static.o
                0x9d1b7c8c                DRV_TMR3_Start

.text.DRV_TMR_AlarmRegister
                0x9d1b7cc8       0x3c
 .text.DRV_TMR_AlarmRegister
                0x9d1b7cc8       0x3c build/default/debug/_ext/1407244131/drv_tmr_mapping.o
                0x9d1b7cc8                DRV_TMR_AlarmRegister

.text.ReadZero  0x9d1b7d04       0x3c
 .text.ReadZero
                0x9d1b7d04       0x3c build/default/debug/_ext/2062801281/CLASSB_RAMMarchCTest.o

.text._DRV_TMR5_Resume
                0x9d1b7d40       0x38
 .text._DRV_TMR5_Resume
                0x9d1b7d40       0x38 build/default/debug/_ext/1407244131/drv_tmr_static.o

.text.main      0x9d1b7d78       0x38
 .text.main     0x9d1b7d78       0x38 build/default/debug/_ext/1360937237/main.o
                0x9d1b7d78                main

.text.CLASSB_CPUPCTest
                0x9d1b7db0       0x38
 .text.CLASSB_CPUPCTest
                0x9d1b7db0       0x38 build/default/debug/_ext/2062801281/CLASSB_CPUPCTest.o
                0x9d1b7db0                CLASSB_CPUPCTest

.text.DRV_NVM_AddressGet
                0x9d1b7de8       0x38
 .text.DRV_NVM_AddressGet
                0x9d1b7de8       0x38 build/default/debug/_ext/274850301/drv_nvm.o
                0x9d1b7de8                DRV_NVM_AddressGet

.text._DRV_NVM_EraseBufferObjProcess
                0x9d1b7e20       0x38
 .text._DRV_NVM_EraseBufferObjProcess
                0x9d1b7e20       0x38 build/default/debug/_ext/274850301/drv_nvm.o
                0x9d1b7e20                _DRV_NVM_EraseBufferObjProcess

.text.DRV_USBHS_DEVICE_AddressSet
                0x9d1b7e58       0x38
 .text.DRV_USBHS_DEVICE_AddressSet
                0x9d1b7e58       0x38 build/default/debug/_ext/1329795486/drv_usbhs_device.o
                0x9d1b7e58                DRV_USBHS_DEVICE_AddressSet

.text._DRV_TMR5_Suspend
                0x9d1b7e90       0x34
 .text._DRV_TMR5_Suspend
                0x9d1b7e90       0x34 build/default/debug/_ext/1407244131/drv_tmr_static.o

.text.DRV_TMR1_Start
                0x9d1b7ec4       0x34
 .text.DRV_TMR1_Start
                0x9d1b7ec4       0x34 build/default/debug/_ext/1407244131/drv_tmr_static.o
                0x9d1b7ec4                DRV_TMR1_Start

.text.DRV_TMR5_Stop
                0x9d1b7ef8       0x34
 .text.DRV_TMR5_Stop
                0x9d1b7ef8       0x34 build/default/debug/_ext/1407244131/drv_tmr_static.o
                0x9d1b7ef8                DRV_TMR5_Stop

.rodata         0x9d1b7f2c       0x34
 .rodata        0x9d1b7f2c       0x34 build/default/debug/_ext/1360937237/nvm_fs.o

.text.SYS_FS_MEDIA_MANAGER_GetMediaGeometry
                0x9d1b7f60       0x34
 .text.SYS_FS_MEDIA_MANAGER_GetMediaGeometry
                0x9d1b7f60       0x34 build/default/debug/_ext/746721678/sys_fs_media_manager.o
                0x9d1b7f60                SYS_FS_MEDIA_MANAGER_GetMediaGeometry

.rodata         0x9d1b7f94       0x30
 .rodata        0x9d1b7f94       0x30 build/default/debug/_ext/274850301/drv_nvm.o
                0x9d1b7f94                nvmMediaFunctions

.text.DRV_USBHS_Close
                0x9d1b7fc4       0x30
 .text.DRV_USBHS_Close
                0x9d1b7fc4       0x30 build/default/debug/_ext/1329795486/drv_usbhs.o
                0x9d1b7fc4                DRV_USBHS_Close

.rodata         0x9d1b7ff4       0x30
 .rodata        0x9d1b7ff4       0x30 build/default/debug/_ext/746721678/sys_fs_media_manager.o
                0x9d1b8004                gPartitionTypeOffset

.text.sum_sfn   0x9d1b8024       0x30
 .text.sum_sfn  0x9d1b8024       0x30 build/default/debug/_ext/408548909/ff.o

.text.clust2sect
                0x9d1b8054       0x30
 .text.clust2sect
                0x9d1b8054       0x30 build/default/debug/_ext/408548909/ff.o
                0x9d1b8054                clust2sect

.text.DRV_TMR5_AlarmEnable
                0x9d1b8084       0x2c
 .text.DRV_TMR5_AlarmEnable
                0x9d1b8084       0x2c build/default/debug/_ext/1407244131/drv_tmr_static.o
                0x9d1b8084                DRV_TMR5_AlarmEnable

.text.DRV_TMR_AlarmEnable
                0x9d1b80b0       0x2c
 .text.DRV_TMR_AlarmEnable
                0x9d1b80b0       0x2c build/default/debug/_ext/1407244131/drv_tmr_mapping.o
                0x9d1b80b0                DRV_TMR_AlarmEnable

.text._SYS_TMR_AlarmCallback
                0x9d1b80dc       0x2c
 .text._SYS_TMR_AlarmCallback
                0x9d1b80dc       0x2c build/default/debug/_ext/945675698/sys_tmr.o

.text.DRV_TMR5_Start
                0x9d1b8108       0x28
 .text.DRV_TMR5_Start
                0x9d1b8108       0x28 build/default/debug/_ext/1407244131/drv_tmr_static.o
                0x9d1b8108                DRV_TMR5_Start

.text.CLASSB_CRCFlashTest
                0x9d1b8130       0x28
 .text.CLASSB_CRCFlashTest
                0x9d1b8130       0x28 build/default/debug/_ext/2062801281/CLASSB_CRCFlashTest.o
                0x9d1b8130                CLASSB_CRCFlashTest

.text.DRV_NVM_GeometryGet
                0x9d1b8158       0x28
 .text.DRV_NVM_GeometryGet
                0x9d1b8158       0x28 build/default/debug/_ext/274850301/drv_nvm.o
                0x9d1b8158                DRV_NVM_GeometryGet

.text._DRV_SPI_RootDriverDeinitialization
                0x9d1b8180       0x28
 .text._DRV_SPI_RootDriverDeinitialization
                0x9d1b8180       0x28 build/default/debug/_ext/1415029366/drv_spi.o

.text._SYS_FS_MEDIA_MANAGER_HandleMediaDetach
                0x9d1b81a8       0x28
 .text._SYS_FS_MEDIA_MANAGER_HandleMediaDetach
                0x9d1b81a8       0x28 build/default/debug/_ext/746721678/sys_fs_media_manager.o

.text.diskEventHandler
                0x9d1b81d0       0x28
 .text.diskEventHandler
                0x9d1b81d0       0x28 build/default/debug/_ext/1290481162/diskio.o
                0x9d1b81d0                diskEventHandler

.text._USB_DEVICE_ClientHandleValidate
                0x9d1b81f8       0x28
 .text._USB_DEVICE_ClientHandleValidate
                0x9d1b81f8       0x28 build/default/debug/_ext/419360567/usb_device.o
                0x9d1b81f8                _USB_DEVICE_ClientHandleValidate

.text.DRV_TMR5_AlarmDisable
                0x9d1b8220       0x24
 .text.DRV_TMR5_AlarmDisable
                0x9d1b8220       0x24 build/default/debug/_ext/1407244131/drv_tmr_static.o
                0x9d1b8220                DRV_TMR5_AlarmDisable

.text._DRV_USBHS_DEVICE_FIFOFreeAll
                0x9d1b8244       0x24
 .text._DRV_USBHS_DEVICE_FIFOFreeAll
                0x9d1b8244       0x24 build/default/debug/_ext/1329795486/drv_usbhs_device.o
                0x9d1b8244                _DRV_USBHS_DEVICE_FIFOFreeAll

.text.mem_cpy   0x9d1b8268       0x24
 .text.mem_cpy  0x9d1b8268       0x24 build/default/debug/_ext/408548909/ff.o

.text.ff_wtoupper
                0x9d1b828c       0x24
 .text.ff_wtoupper
                0x9d1b828c       0x24 build/default/debug/_ext/408548909/ff.o
                0x9d1b828c                ff_wtoupper

.text.disk_initialize
                0x9d1b82b0       0x24
 .text.disk_initialize
                0x9d1b82b0       0x24 build/default/debug/_ext/1290481162/diskio.o
                0x9d1b82b0                disk_initialize

.text.Clear_Status
                0x9d1b82d4       0x20
 .text.Clear_Status
                0x9d1b82d4       0x20 build/default/debug/_ext/1360937237/statusst.o
                0x9d1b82d4                Clear_Status

.text.Prepare_Return_A
                0x9d1b82f4       0x20
 .text.Prepare_Return_A
                0x9d1b82f4       0x20 build/default/debug/_ext/1360937237/statusst.o
                0x9d1b82f4                Prepare_Return_A

.text.DRV_NVM_IsAttached
                0x9d1b8314       0x20
 .text.DRV_NVM_IsAttached
                0x9d1b8314       0x20 build/default/debug/_ext/274850301/drv_nvm.o
                0x9d1b8314                DRV_NVM_IsAttached

.text.DRV_SPI_Tasks
                0x9d1b8334       0x20
 .text.DRV_SPI_Tasks
                0x9d1b8334       0x20 build/default/debug/_ext/1415029366/drv_spi.o
                0x9d1b8334                DRV_SPI_Tasks

.text.SYS_INT_Disable
                0x9d1b8354       0x20
 .text.SYS_INT_Disable
                0x9d1b8354       0x20 build/default/debug/_ext/2087805404/sys_int_pic32.o
                0x9d1b8354                SYS_INT_Disable

.text._USB_DEVICE_HID_GlobalInitialize
                0x9d1b8374       0x20
 .text._USB_DEVICE_HID_GlobalInitialize
                0x9d1b8374       0x20 build/default/debug/_ext/419360567/usb_device_hid.o
                0x9d1b8374                _USB_DEVICE_HID_GlobalInitialize

.text.Set_Status
                0x9d1b8394       0x1c
 .text.Set_Status
                0x9d1b8394       0x1c build/default/debug/_ext/1360937237/statusst.o
                0x9d1b8394                Set_Status

.text.TEST_Tasks
                0x9d1b83b0       0x1c
 .text.TEST_Tasks
                0x9d1b83b0       0x1c build/default/debug/_ext/1360937237/test.o
                0x9d1b83b0                TEST_Tasks

.text.SPI_2_EventHandler
                0x9d1b83cc       0x1c
 .text.SPI_2_EventHandler
                0x9d1b83cc       0x1c build/default/debug/_ext/1360937237/gamma.o

.text.NVM_FS_Initialize
                0x9d1b83e8       0x1c
 .text.NVM_FS_Initialize
                0x9d1b83e8       0x1c build/default/debug/_ext/1360937237/nvm_fs.o
                0x9d1b83e8                NVM_FS_Initialize

.text.SYS_FS_Tasks
                0x9d1b8404       0x1c
 .text.SYS_FS_Tasks
                0x9d1b8404       0x1c build/default/debug/_ext/746721678/sys_fs.o
                0x9d1b8404                SYS_FS_Tasks

.text.mem_set   0x9d1b8420       0x1c
 .text.mem_set  0x9d1b8420       0x1c build/default/debug/_ext/408548909/ff.o

.text.clear_lock
                0x9d1b843c       0x1c
 .text.clear_lock
                0x9d1b843c       0x1c build/default/debug/_ext/408548909/ff.o

.text.get_fattime
                0x9d1b8458       0x1c
 .text.get_fattime
                0x9d1b8458       0x1c build/default/debug/_ext/1290481162/diskio.o
                0x9d1b8458                get_fattime

.text.SYS_INT_StatusGetAndDisable
                0x9d1b8474       0x1c
 .text.SYS_INT_StatusGetAndDisable
                0x9d1b8474       0x1c build/default/debug/_ext/2087805404/sys_int_pic32.o
                0x9d1b8474                SYS_INT_StatusGetAndDisable

.text.SYS_INT_StatusRestore
                0x9d1b8490       0x1c
 .text.SYS_INT_StatusRestore
                0x9d1b8490       0x1c build/default/debug/_ext/2087805404/sys_int_pic32.o
                0x9d1b8490                SYS_INT_StatusRestore

.text.DRV_USART0_ReceiverBufferIsEmpty
                0x9d1b84ac       0x18
 .text.DRV_USART0_ReceiverBufferIsEmpty
                0x9d1b84ac       0x18 build/default/debug/_ext/327000265/drv_usart_static_byte_model.o
                0x9d1b84ac                DRV_USART0_ReceiverBufferIsEmpty

.text.DRV_USART1_ReceiverBufferIsEmpty
                0x9d1b84c4       0x18
 .text.DRV_USART1_ReceiverBufferIsEmpty
                0x9d1b84c4       0x18 build/default/debug/_ext/327000265/drv_usart_static_byte_model.o
                0x9d1b84c4                DRV_USART1_ReceiverBufferIsEmpty

.text.f_chdrive
                0x9d1b84dc       0x18
 .text.f_chdrive
                0x9d1b84dc       0x18 build/default/debug/_ext/408548909/ff.o
                0x9d1b84dc                f_chdrive

.text           0x9d1b84f4       0x18
 .text          0x9d1b84f4       0x18 c:/program files/microchip/xc32/v2.50/bin/bin/../../lib/gcc/pic32mx/4.8.3/../../../../pic32mx/lib/fpu64\libpic32.a(default-nmi-handler.o)
                0x9d1b84f4                _nmi_handler

.text.DRV_TMR2_CounterValueGet
                0x9d1b850c       0x14
 .text.DRV_TMR2_CounterValueGet
                0x9d1b850c       0x14 build/default/debug/_ext/1407244131/drv_tmr_static.o
                0x9d1b850c                DRV_TMR2_CounterValueGet

.text.DRV_TMR5_CounterValueGet
                0x9d1b8520       0x14
 .text.DRV_TMR5_CounterValueGet
                0x9d1b8520       0x14 build/default/debug/_ext/1407244131/drv_tmr_static.o
                0x9d1b8520                DRV_TMR5_CounterValueGet

.text.DRV_USART0_ReadByte
                0x9d1b8534       0x14
 .text.DRV_USART0_ReadByte
                0x9d1b8534       0x14 build/default/debug/_ext/327000265/drv_usart_static_byte_model.o
                0x9d1b8534                DRV_USART0_ReadByte

.text.DRV_USART1_ReadByte
                0x9d1b8548       0x14
 .text.DRV_USART1_ReadByte
                0x9d1b8548       0x14 build/default/debug/_ext/327000265/drv_usart_static_byte_model.o
                0x9d1b8548                DRV_USART1_ReadByte

.text.SYS_DEVCON_Initialize
                0x9d1b855c       0x14
 .text.SYS_DEVCON_Initialize
                0x9d1b855c       0x14 build/default/debug/_ext/340578644/sys_devcon.o
                0x9d1b855c                SYS_DEVCON_Initialize

.text.f_eof     0x9d1b8570       0x14
 .text.f_eof    0x9d1b8570       0x14 build/default/debug/_ext/408548909/ff.o
                0x9d1b8570                f_eof

.text.SYS_INT_Initialize
                0x9d1b8584       0x14
 .text.SYS_INT_Initialize
                0x9d1b8584       0x14 build/default/debug/_ext/2087805404/sys_int_pic32.o
                0x9d1b8584                SYS_INT_Initialize

.rodata         0x9d1b8598       0x14
 .rodata        0x9d1b8598       0x14 build/default/debug/_ext/419360567/usb_device_hid.o
                0x9d1b8598                hidFuncDriver

.text.DRV_TMR2_CounterClear
                0x9d1b85ac       0x10
 .text.DRV_TMR2_CounterClear
                0x9d1b85ac       0x10 build/default/debug/_ext/1407244131/drv_tmr_static.o
                0x9d1b85ac                DRV_TMR2_CounterClear

.text.DRV_TMR5_CounterClear
                0x9d1b85bc       0x10
 .text.DRV_TMR5_CounterClear
                0x9d1b85bc       0x10 build/default/debug/_ext/1407244131/drv_tmr_static.o
                0x9d1b85bc                DRV_TMR5_CounterClear

.text.__exception_handler_break
                0x9d00fff4        0xc
 .text.__exception_handler_break
                0x9d00fff4        0xc c:/program files/microchip/xc32/v2.50/bin/bin/../../lib/gcc/pic32mx/4.8.3/../../../../pic32mx/lib/fpu64\software-debug-break.o
                0x9d00fff4                __exception_handler_break

.text.SYS_CLK_SystemFrequencyGet
                0x9d1b85cc        0xc
 .text.SYS_CLK_SystemFrequencyGet
                0x9d1b85cc        0xc build/default/debug/_ext/639803181/sys_clk_pic32mz.o
                0x9d1b85cc                SYS_CLK_SystemFrequencyGet

.rodata         0x9d1b85d8        0xc
 .rodata        0x9d1b85d8        0xc build/default/debug/_ext/1360937237/gamma.o

.text.DRV_SPI_SYS_QUEUE_Deinitialize
                0x9d1b85e4        0xc
 .text.DRV_SPI_SYS_QUEUE_Deinitialize
                0x9d1b85e4        0xc build/default/debug/_ext/1745438118/drv_spi_sys_queue_fifo.o
                0x9d1b85e4                DRV_SPI_SYS_QUEUE_Deinitialize

.text.SYS_FS_MEDIA_MANAGER_RegisterTransferHandler
                0x9d1b85f0        0xc
 .text.SYS_FS_MEDIA_MANAGER_RegisterTransferHandler
                0x9d1b85f0        0xc build/default/debug/_ext/746721678/sys_fs_media_manager.o
                0x9d1b85f0                SYS_FS_MEDIA_MANAGER_RegisterTransferHandler

.text.f_error   0x9d1b85fc        0xc
 .text.f_error  0x9d1b85fc        0xc build/default/debug/_ext/408548909/ff.o
                0x9d1b85fc                f_error

.text.DRV_USART_TasksTransmit
                0x9d0000f8        0x8
 .text.DRV_USART_TasksTransmit
                0x9d0000f8        0x8 build/default/debug/_ext/327000265/drv_usart_mapping.o
                0x9d0000f8                DRV_USART_TasksTransmit

.text.DRV_USART_TasksReceive
                0x9d1b8608        0x8
 .text.DRV_USART_TasksReceive
                0x9d1b8608        0x8 build/default/debug/_ext/327000265/drv_usart_mapping.o
                0x9d1b8608                DRV_USART_TasksReceive

.text.DRV_USART_TasksError
                0x9d1b8610        0x8
 .text.DRV_USART_TasksError
                0x9d1b8610        0x8 build/default/debug/_ext/327000265/drv_usart_mapping.o
                0x9d1b8610                DRV_USART_TasksError

.text.DRV_USART0_Open
                0x9d1b8618        0x8
 .text.DRV_USART0_Open
                0x9d1b8618        0x8 build/default/debug/_ext/327000265/drv_usart_static.o
                0x9d1b8618                DRV_USART0_Open

.text.DRV_USART0_Close
                0x9d1b8620        0x8
 .text.DRV_USART0_Close
                0x9d1b8620        0x8 build/default/debug/_ext/327000265/drv_usart_static.o
                0x9d1b8620                DRV_USART0_Close

.text.DRV_USART1_Open
                0x9d1b8628        0x8
 .text.DRV_USART1_Open
                0x9d1b8628        0x8 build/default/debug/_ext/327000265/drv_usart_static.o
                0x9d1b8628                DRV_USART1_Open

.text.DRV_USART1_Close
                0x9d1b8630        0x8
 .text.DRV_USART1_Close
                0x9d1b8630        0x8 build/default/debug/_ext/327000265/drv_usart_static.o
                0x9d1b8630                DRV_USART1_Close

.text.SYS_CLK_ReferenceFrequencyGet
                0x9d1b8638        0x8
 .text.SYS_CLK_ReferenceFrequencyGet
                0x9d1b8638        0x8 build/default/debug/_ext/639803181/sys_clk_pic32mz.o
                0x9d1b8638                SYS_CLK_ReferenceFrequencyGet

.rodata         0x9d1b8640        0x8
 .rodata        0x9d1b8640        0x8 build/default/debug/_ext/1688732426/system_interrupt.o

.text.Fifo_Length
                0x9d1b8648        0x8
 .text.Fifo_Length
                0x9d1b8648        0x8 build/default/debug/_ext/1360937237/fifo.o
                0x9d1b8648                Fifo_Length

.text.DRV_USBHS_DEVICE_RemoteWakeupStart
                0x9d1b8650        0x8
 .text.DRV_USBHS_DEVICE_RemoteWakeupStart
                0x9d1b8650        0x8 build/default/debug/_ext/1329795486/drv_usbhs_device.o
                0x9d1b8650                DRV_USBHS_DEVICE_RemoteWakeupStart

.text.DRV_USBHS_DEVICE_RemoteWakeupStop
                0x9d1b8658        0x8
 .text.DRV_USBHS_DEVICE_RemoteWakeupStop
                0x9d1b8658        0x8 build/default/debug/_ext/1329795486/drv_usbhs_device.o
                0x9d1b8658                DRV_USBHS_DEVICE_RemoteWakeupStop

.text.DRV_USBHS_DEVICE_SOFNumberGet
                0x9d1b8660        0x8
 .text.DRV_USBHS_DEVICE_SOFNumberGet
                0x9d1b8660        0x8 build/default/debug/_ext/1329795486/drv_usbhs_device.o
                0x9d1b8660                DRV_USBHS_DEVICE_SOFNumberGet

.rodata         0x9d1b8668        0x8
 .rodata        0x9d1b8668        0x8 build/default/debug/_ext/746721678/sys_fs.o

.text.f_tell    0x9d1b8670        0x8
 .text.f_tell   0x9d1b8670        0x8 build/default/debug/_ext/408548909/ff.o
                0x9d1b8670                f_tell

.text.f_size    0x9d1b8678        0x8
 .text.f_size   0x9d1b8678        0x8 build/default/debug/_ext/408548909/ff.o
                0x9d1b8678                f_size

.text.disk_status
                0x9d1b8680        0x8
 .text.disk_status
                0x9d1b8680        0x8 build/default/debug/_ext/1290481162/diskio.o
                0x9d1b8680                disk_status

.text._on_reset
                0x9d1b8688        0x8
 .text._on_reset
                0x9d1b8688        0x8 c:/program files/microchip/xc32/v2.50/bin/bin/../../lib/gcc/pic32mx/4.8.3/../../../../pic32mx/lib/fpu64\libpic32.a(default-on-reset.o)
                0x9d1b8688                _on_reset

.text._on_bootstrap
                0x9d1b8690        0x8
 .text._on_bootstrap
                0x9d1b8690        0x8 c:/program files/microchip/xc32/v2.50/bin/bin/../../lib/gcc/pic32mx/4.8.3/../../../../pic32mx/lib/fpu64\libpic32.a(default-on-bootstrap.o)
                0x9d1b8690                _on_bootstrap
